
CDv2.elf:     file format elf32-littlearm

Sections:
Idx Name          Size      VMA       LMA       File off  Algn
  0 .isr_vector   00000188  08000000  08000000  00001000  2**0
                  CONTENTS, ALLOC, LOAD, READONLY, DATA
  1 .text         0000399c  08000188  08000188  00001188  2**3
                  CONTENTS, ALLOC, LOAD, READONLY, CODE
  2 .rodata       00000038  08003b24  08003b24  00004b24  2**2
                  CONTENTS, ALLOC, LOAD, READONLY, DATA
  3 .ARM.extab    00000000  08003b5c  08003b5c  00005010  2**0
                  CONTENTS, READONLY
  4 .ARM          00000000  08003b5c  08003b5c  00005010  2**0
                  CONTENTS, READONLY
  5 .preinit_array 00000000  08003b5c  08003b5c  00005010  2**0
                  CONTENTS, ALLOC, LOAD, DATA
  6 .init_array   00000004  08003b5c  08003b5c  00004b5c  2**2
                  CONTENTS, ALLOC, LOAD, READONLY, DATA
  7 .fini_array   00000004  08003b60  08003b60  00004b60  2**2
                  CONTENTS, ALLOC, LOAD, READONLY, DATA
  8 .data         00000010  20000000  08003b64  00005000  2**2
                  CONTENTS, ALLOC, LOAD, DATA
  9 .ccmram       00000000  10000000  10000000  00005010  2**0
                  CONTENTS
 10 .bss          000004b8  20000010  20000010  00005010  2**2
                  ALLOC
 11 ._user_heap_stack 00000600  200004c8  200004c8  00005010  2**0
                  ALLOC
 12 .ARM.attributes 00000030  00000000  00000000  00005010  2**0
                  CONTENTS, READONLY
 13 .debug_info   0001e233  00000000  00000000  00005040  2**0
                  CONTENTS, READONLY, DEBUGGING, OCTETS
 14 .debug_abbrev 000035d3  00000000  00000000  00023273  2**0
                  CONTENTS, READONLY, DEBUGGING, OCTETS
 15 .debug_loclists 00013602  00000000  00000000  00026846  2**0
                  CONTENTS, READONLY, DEBUGGING, OCTETS
 16 .debug_aranges 00000fd8  00000000  00000000  00039e48  2**3
                  CONTENTS, READONLY, DEBUGGING, OCTETS
 17 .debug_rnglists 00001deb  00000000  00000000  0003ae20  2**0
                  CONTENTS, READONLY, DEBUGGING, OCTETS
 18 .debug_macro  0001e3cf  00000000  00000000  0003cc0b  2**0
                  CONTENTS, READONLY, DEBUGGING, OCTETS
 19 .debug_line   00021820  00000000  00000000  0005afda  2**0
                  CONTENTS, READONLY, DEBUGGING, OCTETS
 20 .debug_str    000b92aa  00000000  00000000  0007c7fa  2**0
                  CONTENTS, READONLY, DEBUGGING, OCTETS
 21 .comment      00000043  00000000  00000000  00135aa4  2**0
                  CONTENTS, READONLY
 22 .debug_frame  00002dcc  00000000  00000000  00135ae8  2**2
                  CONTENTS, READONLY, DEBUGGING, OCTETS
 23 .debug_line_str 00000049  00000000  00000000  001388b4  2**0
                  CONTENTS, READONLY, DEBUGGING, OCTETS

Disassembly of section .text:

08000188 <__do_global_dtors_aux>:
 8000188:	b510      	push	{r4, lr}
 800018a:	4c05      	ldr	r4, [pc, #20]	@ (80001a0 <__do_global_dtors_aux+0x18>)
 800018c:	7823      	ldrb	r3, [r4, #0]
 800018e:	b933      	cbnz	r3, 800019e <__do_global_dtors_aux+0x16>
 8000190:	4b04      	ldr	r3, [pc, #16]	@ (80001a4 <__do_global_dtors_aux+0x1c>)
 8000192:	b113      	cbz	r3, 800019a <__do_global_dtors_aux+0x12>
 8000194:	4804      	ldr	r0, [pc, #16]	@ (80001a8 <__do_global_dtors_aux+0x20>)
 8000196:	f3af 8000 	nop.w
 800019a:	2301      	movs	r3, #1
 800019c:	7023      	strb	r3, [r4, #0]
 800019e:	bd10      	pop	{r4, pc}
 80001a0:	20000010 	.word	0x20000010
 80001a4:	00000000 	.word	0x00000000
 80001a8:	08003b0c 	.word	0x08003b0c

080001ac <frame_dummy>:
 80001ac:	b508      	push	{r3, lr}
 80001ae:	4b03      	ldr	r3, [pc, #12]	@ (80001bc <frame_dummy+0x10>)
 80001b0:	b11b      	cbz	r3, 80001ba <frame_dummy+0xe>
 80001b2:	4903      	ldr	r1, [pc, #12]	@ (80001c0 <frame_dummy+0x14>)
 80001b4:	4803      	ldr	r0, [pc, #12]	@ (80001c4 <frame_dummy+0x18>)
 80001b6:	f3af 8000 	nop.w
 80001ba:	bd08      	pop	{r3, pc}
 80001bc:	00000000 	.word	0x00000000
 80001c0:	20000014 	.word	0x20000014
 80001c4:	08003b0c 	.word	0x08003b0c

080001c8 <HAL_InitTick>:
  *         implementation  in user file.
  * @param TickPriority Tick interrupt priority.
  * @retval HAL status
  */
__weak HAL_StatusTypeDef HAL_InitTick(uint32_t TickPriority)
{
 80001c8:	b538      	push	{r3, r4, r5, lr}
  /* Configure the SysTick to have interrupt in 1ms time basis*/
  if (HAL_SYSTICK_Config(SystemCoreClock / (1000U / uwTickFreq)) > 0U)
 80001ca:	4a0e      	ldr	r2, [pc, #56]	@ (8000204 <HAL_InitTick+0x3c>)
 80001cc:	4b0e      	ldr	r3, [pc, #56]	@ (8000208 <HAL_InitTick+0x40>)
 80001ce:	7812      	ldrb	r2, [r2, #0]
{
 80001d0:	4605      	mov	r5, r0
  if (HAL_SYSTICK_Config(SystemCoreClock / (1000U / uwTickFreq)) > 0U)
 80001d2:	6818      	ldr	r0, [r3, #0]
 80001d4:	f44f 737a 	mov.w	r3, #1000	@ 0x3e8
 80001d8:	fbb3 f3f2 	udiv	r3, r3, r2
 80001dc:	fbb0 f0f3 	udiv	r0, r0, r3
 80001e0:	f000 f896 	bl	8000310 <HAL_SYSTICK_Config>
 80001e4:	b908      	cbnz	r0, 80001ea <HAL_InitTick+0x22>
  {
    return HAL_ERROR;
  }

  /* Configure the SysTick IRQ priority */
  if (TickPriority < (1UL << __NVIC_PRIO_BITS))
 80001e6:	2d0f      	cmp	r5, #15
 80001e8:	d901      	bls.n	80001ee <HAL_InitTick+0x26>
    return HAL_ERROR;
 80001ea:	2001      	movs	r0, #1
  {
    return HAL_ERROR;
  }
   /* Return function status */
  return HAL_OK;
}
 80001ec:	bd38      	pop	{r3, r4, r5, pc}
 80001ee:	4604      	mov	r4, r0
    HAL_NVIC_SetPriority(SysTick_IRQn, TickPriority, 0U);
 80001f0:	4602      	mov	r2, r0
 80001f2:	4629      	mov	r1, r5
 80001f4:	f04f 30ff 	mov.w	r0, #4294967295
 80001f8:	f000 f840 	bl	800027c <HAL_NVIC_SetPriority>
    uwTickPrio = TickPriority;
 80001fc:	4b03      	ldr	r3, [pc, #12]	@ (800020c <HAL_InitTick+0x44>)
 80001fe:	4620      	mov	r0, r4
 8000200:	601d      	str	r5, [r3, #0]
}
 8000202:	bd38      	pop	{r3, r4, r5, pc}
 8000204:	20000000 	.word	0x20000000
 8000208:	2000000c 	.word	0x2000000c
 800020c:	20000004 	.word	0x20000004

08000210 <HAL_Init>:
  __HAL_FLASH_PREFETCH_BUFFER_ENABLE();
 8000210:	4a07      	ldr	r2, [pc, #28]	@ (8000230 <HAL_Init+0x20>)
{
 8000212:	b508      	push	{r3, lr}
  __HAL_FLASH_PREFETCH_BUFFER_ENABLE();
 8000214:	6813      	ldr	r3, [r2, #0]
 8000216:	f043 0310 	orr.w	r3, r3, #16
 800021a:	6013      	str	r3, [r2, #0]
  HAL_NVIC_SetPriorityGrouping(NVIC_PRIORITYGROUP_4);
 800021c:	2003      	movs	r0, #3
 800021e:	f000 f81b 	bl	8000258 <HAL_NVIC_SetPriorityGrouping>
  HAL_InitTick(TICK_INT_PRIORITY);
 8000222:	2000      	movs	r0, #0
 8000224:	f7ff ffd0 	bl	80001c8 <HAL_InitTick>
  HAL_MspInit();
 8000228:	f002 ffdc 	bl	80031e4 <HAL_MspInit>
}
 800022c:	2000      	movs	r0, #0
 800022e:	bd08      	pop	{r3, pc}
 8000230:	40022000 	.word	0x40022000

08000234 <HAL_IncTick>:
  *         implementations  in user file.
  * @retval None
  */
__weak void HAL_IncTick(void)
{
  uwTick += uwTickFreq;
 8000234:	4a03      	ldr	r2, [pc, #12]	@ (8000244 <HAL_IncTick+0x10>)
 8000236:	4b04      	ldr	r3, [pc, #16]	@ (8000248 <HAL_IncTick+0x14>)
 8000238:	6811      	ldr	r1, [r2, #0]
 800023a:	781b      	ldrb	r3, [r3, #0]
 800023c:	440b      	add	r3, r1
 800023e:	6013      	str	r3, [r2, #0]
}
 8000240:	4770      	bx	lr
 8000242:	bf00      	nop
 8000244:	2000002c 	.word	0x2000002c
 8000248:	20000000 	.word	0x20000000

0800024c <HAL_GetTick>:
  *         implementations  in user file.
  * @retval tick value
  */
__weak uint32_t HAL_GetTick(void)
{
  return uwTick;  
 800024c:	4b01      	ldr	r3, [pc, #4]	@ (8000254 <HAL_GetTick+0x8>)
 800024e:	6818      	ldr	r0, [r3, #0]
}
 8000250:	4770      	bx	lr
 8000252:	bf00      	nop
 8000254:	2000002c 	.word	0x2000002c

08000258 <HAL_NVIC_SetPriorityGrouping>:
__STATIC_INLINE void __NVIC_SetPriorityGrouping(uint32_t PriorityGroup)
{
  uint32_t reg_value;
  uint32_t PriorityGroupTmp = (PriorityGroup & (uint32_t)0x07UL);             /* only values 0..7 are used          */

  reg_value  =  SCB->AIRCR;                                                   /* read old register configuration    */
 8000258:	4907      	ldr	r1, [pc, #28]	@ (8000278 <HAL_NVIC_SetPriorityGrouping+0x20>)
 800025a:	68ca      	ldr	r2, [r1, #12]
  reg_value &= ~((uint32_t)(SCB_AIRCR_VECTKEY_Msk | SCB_AIRCR_PRIGROUP_Msk)); /* clear bits to change               */
  reg_value  =  (reg_value                                   |
                ((uint32_t)0x5FAUL << SCB_AIRCR_VECTKEY_Pos) |
                (PriorityGroupTmp << SCB_AIRCR_PRIGROUP_Pos)  );              /* Insert write key and priority group */
 800025c:	0203      	lsls	r3, r0, #8
  reg_value &= ~((uint32_t)(SCB_AIRCR_VECTKEY_Msk | SCB_AIRCR_PRIGROUP_Msk)); /* clear bits to change               */
 800025e:	f64f 00ff 	movw	r0, #63743	@ 0xf8ff
                (PriorityGroupTmp << SCB_AIRCR_PRIGROUP_Pos)  );              /* Insert write key and priority group */
 8000262:	f403 63e0 	and.w	r3, r3, #1792	@ 0x700
  reg_value &= ~((uint32_t)(SCB_AIRCR_VECTKEY_Msk | SCB_AIRCR_PRIGROUP_Msk)); /* clear bits to change               */
 8000266:	4002      	ands	r2, r0
                ((uint32_t)0x5FAUL << SCB_AIRCR_VECTKEY_Pos) |
 8000268:	4313      	orrs	r3, r2
  reg_value  =  (reg_value                                   |
 800026a:	f043 63bf 	orr.w	r3, r3, #100139008	@ 0x5f80000
 800026e:	f443 3300 	orr.w	r3, r3, #131072	@ 0x20000
  SCB->AIRCR =  reg_value;
 8000272:	60cb      	str	r3, [r1, #12]
  /* Check the parameters */
  assert_param(IS_NVIC_PRIORITY_GROUP(PriorityGroup));

  /* Set the PRIGROUP[10:8] bits according to the PriorityGroup parameter value */
  NVIC_SetPriorityGrouping(PriorityGroup);
}
 8000274:	4770      	bx	lr
 8000276:	bf00      	nop
 8000278:	e000ed00 	.word	0xe000ed00

0800027c <HAL_NVIC_SetPriority>:
  \details Reads the priority grouping field from the NVIC Interrupt Controller.
  \return                Priority grouping field (SCB->AIRCR [10:8] PRIGROUP field).
 */
__STATIC_INLINE uint32_t __NVIC_GetPriorityGrouping(void)
{
  return ((uint32_t)((SCB->AIRCR & SCB_AIRCR_PRIGROUP_Msk) >> SCB_AIRCR_PRIGROUP_Pos));
 800027c:	4b1b      	ldr	r3, [pc, #108]	@ (80002ec <HAL_NVIC_SetPriority+0x70>)
 800027e:	68db      	ldr	r3, [r3, #12]
 8000280:	f3c3 2302 	ubfx	r3, r3, #8, #3
  *         This parameter can be a value between 0 and 15 as described in the table CORTEX_NVIC_Priority_Table
  *         A lower priority value indicates a higher priority.
  * @retval None
  */
void HAL_NVIC_SetPriority(IRQn_Type IRQn, uint32_t PreemptPriority, uint32_t SubPriority)
{
 8000284:	b500      	push	{lr}
{
  uint32_t PriorityGroupTmp = (PriorityGroup & (uint32_t)0x07UL);   /* only values 0..7 are used          */
  uint32_t PreemptPriorityBits;
  uint32_t SubPriorityBits;

  PreemptPriorityBits = ((7UL - PriorityGroupTmp) > (uint32_t)(__NVIC_PRIO_BITS)) ? (uint32_t)(__NVIC_PRIO_BITS) : (uint32_t)(7UL - PriorityGroupTmp);
 8000286:	f1c3 0e07 	rsb	lr, r3, #7
 800028a:	f1be 0f04 	cmp.w	lr, #4
  SubPriorityBits     = ((PriorityGroupTmp + (uint32_t)(__NVIC_PRIO_BITS)) < (uint32_t)7UL) ? (uint32_t)0UL : (uint32_t)((PriorityGroupTmp - 7UL) + (uint32_t)(__NVIC_PRIO_BITS));
 800028e:	f103 0c04 	add.w	ip, r3, #4
  PreemptPriorityBits = ((7UL - PriorityGroupTmp) > (uint32_t)(__NVIC_PRIO_BITS)) ? (uint32_t)(__NVIC_PRIO_BITS) : (uint32_t)(7UL - PriorityGroupTmp);
 8000292:	bf28      	it	cs
 8000294:	f04f 0e04 	movcs.w	lr, #4
  SubPriorityBits     = ((PriorityGroupTmp + (uint32_t)(__NVIC_PRIO_BITS)) < (uint32_t)7UL) ? (uint32_t)0UL : (uint32_t)((PriorityGroupTmp - 7UL) + (uint32_t)(__NVIC_PRIO_BITS));
 8000298:	f1bc 0f06 	cmp.w	ip, #6
 800029c:	d91c      	bls.n	80002d8 <HAL_NVIC_SetPriority+0x5c>
 800029e:	f1a3 0c03 	sub.w	ip, r3, #3

  return (
           ((PreemptPriority & (uint32_t)((1UL << (PreemptPriorityBits)) - 1UL)) << SubPriorityBits) |
           ((SubPriority     & (uint32_t)((1UL << (SubPriorityBits    )) - 1UL)))
 80002a2:	f04f 33ff 	mov.w	r3, #4294967295
 80002a6:	fa03 f30c 	lsl.w	r3, r3, ip
 80002aa:	ea22 0203 	bic.w	r2, r2, r3
           ((PreemptPriority & (uint32_t)((1UL << (PreemptPriorityBits)) - 1UL)) << SubPriorityBits) |
 80002ae:	f04f 33ff 	mov.w	r3, #4294967295
 80002b2:	fa03 f30e 	lsl.w	r3, r3, lr
 80002b6:	ea21 0303 	bic.w	r3, r1, r3
 80002ba:	fa03 f30c 	lsl.w	r3, r3, ip
 80002be:	4313      	orrs	r3, r2
    NVIC->IP[((uint32_t)IRQn)]               = (uint8_t)((priority << (8U - __NVIC_PRIO_BITS)) & (uint32_t)0xFFUL);
 80002c0:	011b      	lsls	r3, r3, #4
  if ((int32_t)(IRQn) >= 0)
 80002c2:	2800      	cmp	r0, #0
    NVIC->IP[((uint32_t)IRQn)]               = (uint8_t)((priority << (8U - __NVIC_PRIO_BITS)) & (uint32_t)0xFFUL);
 80002c4:	b2db      	uxtb	r3, r3
  if ((int32_t)(IRQn) >= 0)
 80002c6:	db0a      	blt.n	80002de <HAL_NVIC_SetPriority+0x62>
    NVIC->IP[((uint32_t)IRQn)]               = (uint8_t)((priority << (8U - __NVIC_PRIO_BITS)) & (uint32_t)0xFFUL);
 80002c8:	f100 4060 	add.w	r0, r0, #3758096384	@ 0xe0000000
 80002cc:	f500 4061 	add.w	r0, r0, #57600	@ 0xe100
 80002d0:	f880 3300 	strb.w	r3, [r0, #768]	@ 0x300
  assert_param(IS_NVIC_PREEMPTION_PRIORITY(PreemptPriority));
  
  prioritygroup = NVIC_GetPriorityGrouping();
  
  NVIC_SetPriority(IRQn, NVIC_EncodePriority(prioritygroup, PreemptPriority, SubPriority));
}
 80002d4:	f85d fb04 	ldr.w	pc, [sp], #4
 80002d8:	2200      	movs	r2, #0
  SubPriorityBits     = ((PriorityGroupTmp + (uint32_t)(__NVIC_PRIO_BITS)) < (uint32_t)7UL) ? (uint32_t)0UL : (uint32_t)((PriorityGroupTmp - 7UL) + (uint32_t)(__NVIC_PRIO_BITS));
 80002da:	4694      	mov	ip, r2
 80002dc:	e7e7      	b.n	80002ae <HAL_NVIC_SetPriority+0x32>
    SCB->SHP[(((uint32_t)IRQn) & 0xFUL)-4UL] = (uint8_t)((priority << (8U - __NVIC_PRIO_BITS)) & (uint32_t)0xFFUL);
 80002de:	4a04      	ldr	r2, [pc, #16]	@ (80002f0 <HAL_NVIC_SetPriority+0x74>)
 80002e0:	f000 000f 	and.w	r0, r0, #15
 80002e4:	4402      	add	r2, r0
 80002e6:	7613      	strb	r3, [r2, #24]
 80002e8:	f85d fb04 	ldr.w	pc, [sp], #4
 80002ec:	e000ed00 	.word	0xe000ed00
 80002f0:	e000ecfc 	.word	0xe000ecfc

080002f4 <HAL_NVIC_EnableIRQ>:
  if ((int32_t)(IRQn) >= 0)
 80002f4:	2800      	cmp	r0, #0
 80002f6:	db07      	blt.n	8000308 <HAL_NVIC_EnableIRQ+0x14>
    NVIC->ISER[(((uint32_t)IRQn) >> 5UL)] = (uint32_t)(1UL << (((uint32_t)IRQn) & 0x1FUL));
 80002f8:	0941      	lsrs	r1, r0, #5
 80002fa:	4a04      	ldr	r2, [pc, #16]	@ (800030c <HAL_NVIC_EnableIRQ+0x18>)
 80002fc:	f000 001f 	and.w	r0, r0, #31
 8000300:	2301      	movs	r3, #1
 8000302:	4083      	lsls	r3, r0
 8000304:	f842 3021 	str.w	r3, [r2, r1, lsl #2]
  /* Check the parameters */
  assert_param(IS_NVIC_DEVICE_IRQ(IRQn));
  
  /* Enable interrupt */
  NVIC_EnableIRQ(IRQn);
}
 8000308:	4770      	bx	lr
 800030a:	bf00      	nop
 800030c:	e000e100 	.word	0xe000e100

08000310 <HAL_SYSTICK_Config>:
           function <b>SysTick_Config</b> is not included. In this case, the file <b><i>device</i>.h</b>
           must contain a vendor-specific implementation of this function.
 */
__STATIC_INLINE uint32_t SysTick_Config(uint32_t ticks)
{
  if ((ticks - 1UL) > SysTick_LOAD_RELOAD_Msk)
 8000310:	3801      	subs	r0, #1
 8000312:	f1b0 7f80 	cmp.w	r0, #16777216	@ 0x1000000
 8000316:	d301      	bcc.n	800031c <HAL_SYSTICK_Config+0xc>
  {
    return (1UL);                                                   /* Reload value impossible */
 8000318:	2001      	movs	r0, #1
  *                  - 1  Function failed.
  */
uint32_t HAL_SYSTICK_Config(uint32_t TicksNumb)
{
   return SysTick_Config(TicksNumb);
}
 800031a:	4770      	bx	lr
{
 800031c:	b410      	push	{r4}
  }

  SysTick->LOAD  = (uint32_t)(ticks - 1UL);                         /* set reload register */
 800031e:	f04f 23e0 	mov.w	r3, #3758153728	@ 0xe000e000
    SCB->SHP[(((uint32_t)IRQn) & 0xFUL)-4UL] = (uint8_t)((priority << (8U - __NVIC_PRIO_BITS)) & (uint32_t)0xFFUL);
 8000322:	4c07      	ldr	r4, [pc, #28]	@ (8000340 <HAL_SYSTICK_Config+0x30>)
  SysTick->LOAD  = (uint32_t)(ticks - 1UL);                         /* set reload register */
 8000324:	6158      	str	r0, [r3, #20]
    SCB->SHP[(((uint32_t)IRQn) & 0xFUL)-4UL] = (uint8_t)((priority << (8U - __NVIC_PRIO_BITS)) & (uint32_t)0xFFUL);
 8000326:	f04f 0cf0 	mov.w	ip, #240	@ 0xf0
 800032a:	f884 c023 	strb.w	ip, [r4, #35]	@ 0x23
  NVIC_SetPriority (SysTick_IRQn, (1UL << __NVIC_PRIO_BITS) - 1UL); /* set Priority for Systick Interrupt */
  SysTick->VAL   = 0UL;                                             /* Load the SysTick Counter Value */
 800032e:	2200      	movs	r2, #0
  SysTick->CTRL  = SysTick_CTRL_CLKSOURCE_Msk |
 8000330:	2107      	movs	r1, #7
                   SysTick_CTRL_TICKINT_Msk   |
                   SysTick_CTRL_ENABLE_Msk;                         /* Enable SysTick IRQ and SysTick Timer */
  return (0UL);                                                     /* Function successful */
 8000332:	4610      	mov	r0, r2
  SysTick->VAL   = 0UL;                                             /* Load the SysTick Counter Value */
 8000334:	619a      	str	r2, [r3, #24]
}
 8000336:	f85d 4b04 	ldr.w	r4, [sp], #4
  SysTick->CTRL  = SysTick_CTRL_CLKSOURCE_Msk |
 800033a:	6119      	str	r1, [r3, #16]
 800033c:	4770      	bx	lr
 800033e:	bf00      	nop
 8000340:	e000ed00 	.word	0xe000ed00

08000344 <HAL_DMA_Abort>:
  * @retval HAL status
  */
HAL_StatusTypeDef HAL_DMA_Abort(DMA_HandleTypeDef *hdma)
{
  /* Check the DMA handle allocation */
  if(NULL == hdma)
 8000344:	b148      	cbz	r0, 800035a <HAL_DMA_Abort+0x16>
  {
    return HAL_ERROR;
  }

  if(hdma->State != HAL_DMA_STATE_BUSY)
 8000346:	f890 2021 	ldrb.w	r2, [r0, #33]	@ 0x21
 800034a:	2a02      	cmp	r2, #2
 800034c:	4603      	mov	r3, r0
 800034e:	d006      	beq.n	800035e <HAL_DMA_Abort+0x1a>
  {
    /* no transfer ongoing */
    hdma->ErrorCode = HAL_DMA_ERROR_NO_XFER;
 8000350:	2104      	movs	r1, #4

    /* Process Unlocked */
    __HAL_UNLOCK(hdma);
 8000352:	2200      	movs	r2, #0
    hdma->ErrorCode = HAL_DMA_ERROR_NO_XFER;
 8000354:	6381      	str	r1, [r0, #56]	@ 0x38
    __HAL_UNLOCK(hdma);
 8000356:	f880 2020 	strb.w	r2, [r0, #32]
    return HAL_ERROR;
 800035a:	2001      	movs	r0, #1

  /* Process Unlocked */
  __HAL_UNLOCK(hdma);

  return HAL_OK;
}
 800035c:	4770      	bx	lr
    hdma->Instance->CCR &= ~(DMA_IT_TC | DMA_IT_HT | DMA_IT_TE);
 800035e:	6802      	ldr	r2, [r0, #0]
 8000360:	6811      	ldr	r1, [r2, #0]
 8000362:	f021 010e 	bic.w	r1, r1, #14
{
 8000366:	b410      	push	{r4}
    hdma->DmaBaseAddress->IFCR = (DMA_FLAG_GL1 << hdma->ChannelIndex);
 8000368:	6c04      	ldr	r4, [r0, #64]	@ 0x40
 800036a:	6bc0      	ldr	r0, [r0, #60]	@ 0x3c
    hdma->Instance->CCR &= ~(DMA_IT_TC | DMA_IT_HT | DMA_IT_TE);
 800036c:	6011      	str	r1, [r2, #0]
    hdma->Instance->CCR &= ~DMA_CCR_EN;
 800036e:	6811      	ldr	r1, [r2, #0]
 8000370:	f021 0101 	bic.w	r1, r1, #1
 8000374:	6011      	str	r1, [r2, #0]
    hdma->DmaBaseAddress->IFCR = (DMA_FLAG_GL1 << hdma->ChannelIndex);
 8000376:	2201      	movs	r2, #1
 8000378:	40a2      	lsls	r2, r4
  __HAL_UNLOCK(hdma);
 800037a:	f44f 7180 	mov.w	r1, #256	@ 0x100
    hdma->DmaBaseAddress->IFCR = (DMA_FLAG_GL1 << hdma->ChannelIndex);
 800037e:	6042      	str	r2, [r0, #4]
  __HAL_UNLOCK(hdma);
 8000380:	8419      	strh	r1, [r3, #32]
  return HAL_OK;
 8000382:	2000      	movs	r0, #0
}
 8000384:	f85d 4b04 	ldr.w	r4, [sp], #4
 8000388:	4770      	bx	lr
 800038a:	bf00      	nop

0800038c <HAL_DMA_Abort_IT>:
  */
HAL_StatusTypeDef HAL_DMA_Abort_IT(DMA_HandleTypeDef *hdma)
{
  HAL_StatusTypeDef status = HAL_OK;

  if(HAL_DMA_STATE_BUSY != hdma->State)
 800038c:	f890 2021 	ldrb.w	r2, [r0, #33]	@ 0x21
 8000390:	2a02      	cmp	r2, #2
 8000392:	d003      	beq.n	800039c <HAL_DMA_Abort_IT+0x10>
  {
    /* no transfer ongoing */
    hdma->ErrorCode = HAL_DMA_ERROR_NO_XFER;
 8000394:	2204      	movs	r2, #4
 8000396:	6382      	str	r2, [r0, #56]	@ 0x38

    status = HAL_ERROR;
 8000398:	2001      	movs	r0, #1
    {
      hdma->XferAbortCallback(hdma);
    }
  }
  return status;
}
 800039a:	4770      	bx	lr
    hdma->Instance->CCR &= ~(DMA_IT_TC | DMA_IT_HT | DMA_IT_TE);
 800039c:	6802      	ldr	r2, [r0, #0]
 800039e:	6811      	ldr	r1, [r2, #0]
 80003a0:	f021 010e 	bic.w	r1, r1, #14
{
 80003a4:	b510      	push	{r4, lr}
    hdma->DmaBaseAddress->IFCR = DMA_FLAG_GL1 << hdma->ChannelIndex;
 80003a6:	6bc4      	ldr	r4, [r0, #60]	@ 0x3c
    hdma->Instance->CCR &= ~(DMA_IT_TC | DMA_IT_HT | DMA_IT_TE);
 80003a8:	6011      	str	r1, [r2, #0]
    hdma->Instance->CCR &= ~DMA_CCR_EN;
 80003aa:	6811      	ldr	r1, [r2, #0]
 80003ac:	f021 0101 	bic.w	r1, r1, #1
 80003b0:	6011      	str	r1, [r2, #0]
    hdma->DmaBaseAddress->IFCR = DMA_FLAG_GL1 << hdma->ChannelIndex;
 80003b2:	6c01      	ldr	r1, [r0, #64]	@ 0x40
 80003b4:	2201      	movs	r2, #1
 80003b6:	408a      	lsls	r2, r1
    if(hdma->XferAbortCallback != NULL)
 80003b8:	6b41      	ldr	r1, [r0, #52]	@ 0x34
    hdma->DmaBaseAddress->IFCR = DMA_FLAG_GL1 << hdma->ChannelIndex;
 80003ba:	6062      	str	r2, [r4, #4]
    __HAL_UNLOCK(hdma);
 80003bc:	f44f 7c80 	mov.w	ip, #256	@ 0x100
 80003c0:	f8a0 c020 	strh.w	ip, [r0, #32]
    if(hdma->XferAbortCallback != NULL)
 80003c4:	b101      	cbz	r1, 80003c8 <HAL_DMA_Abort_IT+0x3c>
      hdma->XferAbortCallback(hdma);
 80003c6:	4788      	blx	r1
  HAL_StatusTypeDef status = HAL_OK;
 80003c8:	2000      	movs	r0, #0
}
 80003ca:	bd10      	pop	{r4, pc}

080003cc <HAL_GPIO_Init>:
  assert_param(IS_GPIO_ALL_INSTANCE(GPIOx));
  assert_param(IS_GPIO_PIN(GPIO_Init->Pin));
  assert_param(IS_GPIO_MODE(GPIO_Init->Mode));

  /* Configure the port pins */
  while (((GPIO_Init->Pin) >> position) != 0x00u)
 80003cc:	680b      	ldr	r3, [r1, #0]
 80003ce:	2b00      	cmp	r3, #0
 80003d0:	f000 8192 	beq.w	80006f8 <HAL_GPIO_Init+0x32c>
{
 80003d4:	e92d 4ff0 	stmdb	sp!, {r4, r5, r6, r7, r8, r9, sl, fp, lr}
 80003d8:	f1b0 4f90 	cmp.w	r0, #1207959552	@ 0x48000000
 80003dc:	b085      	sub	sp, #20
  uint32_t position = 0x00u;
 80003de:	f04f 0200 	mov.w	r2, #0
  {
    /* Get current io position */
    iocurrent = (GPIO_Init->Pin) & (1uL << position);
 80003e2:	f04f 0b01 	mov.w	fp, #1
 80003e6:	f000 8107 	beq.w	80005f8 <HAL_GPIO_Init+0x22c>
        temp &= ~(0x0FuL << (4u * (position & 0x03u)));
        temp |= (GPIO_GET_INDEX(GPIOx) << (4u * (position & 0x03u)));
        SYSCFG->EXTICR[position >> 2u] = temp;

        /* Clear Rising Falling edge configuration */
        temp = EXTI->RTSR;
 80003ea:	f8df e334 	ldr.w	lr, [pc, #820]	@ 8000720 <HAL_GPIO_Init+0x354>
        temp &= ~(0x0FuL << (4u * (position & 0x03u)));
 80003ee:	9300      	str	r3, [sp, #0]
    if (iocurrent != 0x00u)
 80003f0:	9b00      	ldr	r3, [sp, #0]
    iocurrent = (GPIO_Init->Pin) & (1uL << position);
 80003f2:	fa0b fc02 	lsl.w	ip, fp, r2
    if (iocurrent != 0x00u)
 80003f6:	ea1c 0a03 	ands.w	sl, ip, r3
 80003fa:	d072      	beq.n	80004e2 <HAL_GPIO_Init+0x116>
      if(((GPIO_Init->Mode & GPIO_MODE) == MODE_OUTPUT) || ((GPIO_Init->Mode & GPIO_MODE) == MODE_AF))
 80003fc:	684d      	ldr	r5, [r1, #4]
 80003fe:	f005 0703 	and.w	r7, r5, #3
 8000402:	0054      	lsls	r4, r2, #1
        temp &= ~(GPIO_OSPEEDER_OSPEEDR0 << (position * 2u));
 8000404:	2303      	movs	r3, #3
      if(((GPIO_Init->Mode & GPIO_MODE) == MODE_OUTPUT) || ((GPIO_Init->Mode & GPIO_MODE) == MODE_AF))
 8000406:	f107 38ff 	add.w	r8, r7, #4294967295
        temp &= ~(GPIO_OSPEEDER_OSPEEDR0 << (position * 2u));
 800040a:	fa03 f604 	lsl.w	r6, r3, r4
      if(((GPIO_Init->Mode & GPIO_MODE) == MODE_OUTPUT) || ((GPIO_Init->Mode & GPIO_MODE) == MODE_AF))
 800040e:	f1b8 0f01 	cmp.w	r8, #1
        temp &= ~(GPIO_OSPEEDER_OSPEEDR0 << (position * 2u));
 8000412:	ea6f 0606 	mvn.w	r6, r6
      if(((GPIO_Init->Mode & GPIO_MODE) == MODE_OUTPUT) || ((GPIO_Init->Mode & GPIO_MODE) == MODE_AF))
 8000416:	f240 8113 	bls.w	8000640 <HAL_GPIO_Init+0x274>
      if((GPIO_Init->Mode & GPIO_MODE) != MODE_ANALOG)
 800041a:	2f03      	cmp	r7, #3
 800041c:	f040 816d 	bne.w	80006fa <HAL_GPIO_Init+0x32e>
      temp |= ((GPIO_Init->Mode & GPIO_MODE) << (position * 2u));
 8000420:	fa07 f404 	lsl.w	r4, r7, r4
      temp = GPIOx->MODER;
 8000424:	6807      	ldr	r7, [r0, #0]
      temp &= ~(GPIO_MODER_MODER0 << (position * 2u));
 8000426:	403e      	ands	r6, r7
      temp |= ((GPIO_Init->Mode & GPIO_MODE) << (position * 2u));
 8000428:	4334      	orrs	r4, r6
      if((GPIO_Init->Mode & EXTI_MODE) != 0x00u)
 800042a:	f415 3f40 	tst.w	r5, #196608	@ 0x30000
      GPIOx->MODER = temp;
 800042e:	6004      	str	r4, [r0, #0]
      if((GPIO_Init->Mode & EXTI_MODE) != 0x00u)
 8000430:	d057      	beq.n	80004e2 <HAL_GPIO_Init+0x116>
        __HAL_RCC_SYSCFG_CLK_ENABLE();
 8000432:	4eb8      	ldr	r6, [pc, #736]	@ (8000714 <HAL_GPIO_Init+0x348>)
 8000434:	69b4      	ldr	r4, [r6, #24]
 8000436:	f044 0401 	orr.w	r4, r4, #1
 800043a:	61b4      	str	r4, [r6, #24]
 800043c:	69b4      	ldr	r4, [r6, #24]
 800043e:	f004 0401 	and.w	r4, r4, #1
 8000442:	9403      	str	r4, [sp, #12]
 8000444:	9c03      	ldr	r4, [sp, #12]
        temp = SYSCFG->EXTICR[position >> 2u];
 8000446:	f022 0403 	bic.w	r4, r2, #3
 800044a:	f104 4480 	add.w	r4, r4, #1073741824	@ 0x40000000
        temp &= ~(0x0FuL << (4u * (position & 0x03u)));
 800044e:	f002 0703 	and.w	r7, r2, #3
 8000452:	230f      	movs	r3, #15
 8000454:	f504 3480 	add.w	r4, r4, #65536	@ 0x10000
 8000458:	00bf      	lsls	r7, r7, #2
 800045a:	fa03 fc07 	lsl.w	ip, r3, r7
        temp |= (GPIO_GET_INDEX(GPIOx) << (4u * (position & 0x03u)));
 800045e:	4bae      	ldr	r3, [pc, #696]	@ (8000718 <HAL_GPIO_Init+0x34c>)
        temp = SYSCFG->EXTICR[position >> 2u];
 8000460:	68a6      	ldr	r6, [r4, #8]
        temp |= (GPIO_GET_INDEX(GPIOx) << (4u * (position & 0x03u)));
 8000462:	4298      	cmp	r0, r3
        temp &= ~(0x0FuL << (4u * (position & 0x03u)));
 8000464:	ea26 060c 	bic.w	r6, r6, ip
        temp |= (GPIO_GET_INDEX(GPIOx) << (4u * (position & 0x03u)));
 8000468:	f000 813a 	beq.w	80006e0 <HAL_GPIO_Init+0x314>
 800046c:	4bab      	ldr	r3, [pc, #684]	@ (800071c <HAL_GPIO_Init+0x350>)
 800046e:	4298      	cmp	r0, r3
 8000470:	f000 8127 	beq.w	80006c2 <HAL_GPIO_Init+0x2f6>
 8000474:	f8df c2ac 	ldr.w	ip, [pc, #684]	@ 8000724 <HAL_GPIO_Init+0x358>
 8000478:	4560      	cmp	r0, ip
 800047a:	f000 8137 	beq.w	80006ec <HAL_GPIO_Init+0x320>
 800047e:	f8df c2a8 	ldr.w	ip, [pc, #680]	@ 8000728 <HAL_GPIO_Init+0x35c>
 8000482:	4560      	cmp	r0, ip
 8000484:	bf0c      	ite	eq
 8000486:	f04f 0c04 	moveq.w	ip, #4
 800048a:	f04f 0c05 	movne.w	ip, #5
 800048e:	fa0c f707 	lsl.w	r7, ip, r7
 8000492:	433e      	orrs	r6, r7
        SYSCFG->EXTICR[position >> 2u] = temp;
 8000494:	60a6      	str	r6, [r4, #8]
        temp = EXTI->RTSR;
 8000496:	f8de 4008 	ldr.w	r4, [lr, #8]
        temp &= ~(iocurrent);
 800049a:	ea6f 060a 	mvn.w	r6, sl
        if((GPIO_Init->Mode & TRIGGER_RISING) != 0x00u)
 800049e:	02ef      	lsls	r7, r5, #11
        temp &= ~(iocurrent);
 80004a0:	bf54      	ite	pl
 80004a2:	4034      	andpl	r4, r6
        {
          temp |= iocurrent;
 80004a4:	ea4a 0404 	orrmi.w	r4, sl, r4
        }
        EXTI->RTSR = temp;
 80004a8:	f8ce 4008 	str.w	r4, [lr, #8]

        temp = EXTI->FTSR;
 80004ac:	f8de 400c 	ldr.w	r4, [lr, #12]
        temp &= ~(iocurrent);
        if((GPIO_Init->Mode & TRIGGER_FALLING) != 0x00u)
 80004b0:	02ab      	lsls	r3, r5, #10
        temp &= ~(iocurrent);
 80004b2:	bf54      	ite	pl
 80004b4:	4034      	andpl	r4, r6
        {
          temp |= iocurrent;
 80004b6:	ea4a 0404 	orrmi.w	r4, sl, r4
        }
        EXTI->FTSR = temp;
 80004ba:	f8ce 400c 	str.w	r4, [lr, #12]

        temp = EXTI->EMR;
 80004be:	f8de 4004 	ldr.w	r4, [lr, #4]
        temp &= ~(iocurrent);
        if((GPIO_Init->Mode & EXTI_EVT) != 0x00u)
 80004c2:	03af      	lsls	r7, r5, #14
        temp &= ~(iocurrent);
 80004c4:	bf54      	ite	pl
 80004c6:	4034      	andpl	r4, r6
        {
          temp |= iocurrent;
 80004c8:	ea4a 0404 	orrmi.w	r4, sl, r4
        }
        EXTI->EMR = temp;
 80004cc:	f8ce 4004 	str.w	r4, [lr, #4]

        /* Clear EXTI line configuration */
        temp = EXTI->IMR;
 80004d0:	f8de 4000 	ldr.w	r4, [lr]
        temp &= ~(iocurrent);
        if((GPIO_Init->Mode & EXTI_IT) != 0x00u)
 80004d4:	03eb      	lsls	r3, r5, #15
        temp &= ~(iocurrent);
 80004d6:	bf54      	ite	pl
 80004d8:	4034      	andpl	r4, r6
        {
          temp |= iocurrent;
 80004da:	ea4a 0404 	orrmi.w	r4, sl, r4
        }
        EXTI->IMR = temp;
 80004de:	f8ce 4000 	str.w	r4, [lr]
  while (((GPIO_Init->Pin) >> position) != 0x00u)
 80004e2:	9b00      	ldr	r3, [sp, #0]
      }
    }

    position++;
 80004e4:	3201      	adds	r2, #1
  while (((GPIO_Init->Pin) >> position) != 0x00u)
 80004e6:	fa33 f402 	lsrs.w	r4, r3, r2
 80004ea:	d181      	bne.n	80003f0 <HAL_GPIO_Init+0x24>
  }
}
 80004ec:	b005      	add	sp, #20
 80004ee:	e8bd 8ff0 	ldmia.w	sp!, {r4, r5, r6, r7, r8, r9, sl, fp, pc}
        temp = GPIOx->OSPEEDR;
 80004f2:	f8d0 9008 	ldr.w	r9, [r0, #8]
        temp |= (GPIO_Init->Speed << (position * 2u));
 80004f6:	68ce      	ldr	r6, [r1, #12]
        temp &= ~(GPIO_OSPEEDER_OSPEEDR0 << (position * 2u));
 80004f8:	ea0a 0909 	and.w	r9, sl, r9
        temp |= (GPIO_Init->Speed << (position * 2u));
 80004fc:	fa06 f807 	lsl.w	r8, r6, r7
 8000500:	ea48 0809 	orr.w	r8, r8, r9
        GPIOx->OSPEEDR = temp;
 8000504:	f8c0 8008 	str.w	r8, [r0, #8]
        temp = GPIOx->OTYPER;
 8000508:	f8d0 8004 	ldr.w	r8, [r0, #4]
        temp &= ~(GPIO_OTYPER_OT_0 << position) ;
 800050c:	ea28 080e 	bic.w	r8, r8, lr
        temp |= (((GPIO_Init->Mode & OUTPUT_TYPE) >> OUTPUT_TYPE_Pos) << position);
 8000510:	f3c5 1e00 	ubfx	lr, r5, #4, #1
 8000514:	fa0e fe02 	lsl.w	lr, lr, r2
 8000518:	ea4e 0e08 	orr.w	lr, lr, r8
        GPIOx->OTYPER = temp;
 800051c:	f8c0 e004 	str.w	lr, [r0, #4]
        temp = GPIOx->PUPDR;
 8000520:	f8d0 800c 	ldr.w	r8, [r0, #12]
        temp |= ((GPIO_Init->Pull) << (position * 2u));
 8000524:	688e      	ldr	r6, [r1, #8]
        temp &= ~(GPIO_PUPDR_PUPDR0 << (position * 2u));
 8000526:	ea0a 0808 	and.w	r8, sl, r8
        temp |= ((GPIO_Init->Pull) << (position * 2u));
 800052a:	fa06 fe07 	lsl.w	lr, r6, r7
 800052e:	ea4e 0e08 	orr.w	lr, lr, r8
      if((GPIO_Init->Mode & GPIO_MODE) == MODE_AF)
 8000532:	2c02      	cmp	r4, #2
        GPIOx->PUPDR = temp;
 8000534:	f8c0 e00c 	str.w	lr, [r0, #12]
      if((GPIO_Init->Mode & GPIO_MODE) == MODE_AF)
 8000538:	d119      	bne.n	800056e <HAL_GPIO_Init+0x1a2>
        temp = GPIOx->AFR[position >> 3u];
 800053a:	ea4f 0ed2 	mov.w	lr, r2, lsr #3
        temp |= ((GPIO_Init->Alternate) << ((position & 0x07u) * 4u));
 800053e:	690e      	ldr	r6, [r1, #16]
 8000540:	ea4f 0e8e 	mov.w	lr, lr, lsl #2
        temp &= ~(0xFu << ((position & 0x07u) * 4u));
 8000544:	f002 0807 	and.w	r8, r2, #7
 8000548:	f10e 4e90 	add.w	lr, lr, #1207959552	@ 0x48000000
 800054c:	ea4f 0888 	mov.w	r8, r8, lsl #2
        temp |= ((GPIO_Init->Alternate) << ((position & 0x07u) * 4u));
 8000550:	fa06 f608 	lsl.w	r6, r6, r8
        temp = GPIOx->AFR[position >> 3u];
 8000554:	f8de 9020 	ldr.w	r9, [lr, #32]
        temp |= ((GPIO_Init->Alternate) << ((position & 0x07u) * 4u));
 8000558:	9600      	str	r6, [sp, #0]
        temp &= ~(0xFu << ((position & 0x07u) * 4u));
 800055a:	260f      	movs	r6, #15
 800055c:	fa06 f808 	lsl.w	r8, r6, r8
        temp |= ((GPIO_Init->Alternate) << ((position & 0x07u) * 4u));
 8000560:	9e00      	ldr	r6, [sp, #0]
        temp &= ~(0xFu << ((position & 0x07u) * 4u));
 8000562:	ea29 0908 	bic.w	r9, r9, r8
        temp |= ((GPIO_Init->Alternate) << ((position & 0x07u) * 4u));
 8000566:	ea46 0809 	orr.w	r8, r6, r9
        GPIOx->AFR[position >> 3u] = temp;
 800056a:	f8ce 8020 	str.w	r8, [lr, #32]
      temp |= ((GPIO_Init->Mode & GPIO_MODE) << (position * 2u));
 800056e:	40bc      	lsls	r4, r7
      temp = GPIOx->MODER;
 8000570:	6807      	ldr	r7, [r0, #0]
      temp &= ~(GPIO_MODER_MODER0 << (position * 2u));
 8000572:	ea07 070a 	and.w	r7, r7, sl
      temp |= ((GPIO_Init->Mode & GPIO_MODE) << (position * 2u));
 8000576:	433c      	orrs	r4, r7
      if((GPIO_Init->Mode & EXTI_MODE) != 0x00u)
 8000578:	f415 3f40 	tst.w	r5, #196608	@ 0x30000
      GPIOx->MODER = temp;
 800057c:	6004      	str	r4, [r0, #0]
      if((GPIO_Init->Mode & EXTI_MODE) != 0x00u)
 800057e:	d036      	beq.n	80005ee <HAL_GPIO_Init+0x222>
        __HAL_RCC_SYSCFG_CLK_ENABLE();
 8000580:	4f64      	ldr	r7, [pc, #400]	@ (8000714 <HAL_GPIO_Init+0x348>)
 8000582:	69bc      	ldr	r4, [r7, #24]
 8000584:	f044 0401 	orr.w	r4, r4, #1
 8000588:	61bc      	str	r4, [r7, #24]
 800058a:	69bc      	ldr	r4, [r7, #24]
 800058c:	f004 0401 	and.w	r4, r4, #1
 8000590:	9403      	str	r4, [sp, #12]
 8000592:	9c03      	ldr	r4, [sp, #12]
        temp = SYSCFG->EXTICR[position >> 2u];
 8000594:	f022 0403 	bic.w	r4, r2, #3
 8000598:	f104 4480 	add.w	r4, r4, #1073741824	@ 0x40000000
 800059c:	f504 3480 	add.w	r4, r4, #65536	@ 0x10000
        temp &= ~(0x0FuL << (4u * (position & 0x03u)));
 80005a0:	f002 0703 	and.w	r7, r2, #3
        temp = SYSCFG->EXTICR[position >> 2u];
 80005a4:	f8d4 e008 	ldr.w	lr, [r4, #8]
        temp &= ~(0x0FuL << (4u * (position & 0x03u)));
 80005a8:	260f      	movs	r6, #15
 80005aa:	00bf      	lsls	r7, r7, #2
 80005ac:	fa06 f707 	lsl.w	r7, r6, r7
 80005b0:	ea2e 0707 	bic.w	r7, lr, r7
        SYSCFG->EXTICR[position >> 2u] = temp;
 80005b4:	60a7      	str	r7, [r4, #8]
        temp = EXTI->RTSR;
 80005b6:	4c5a      	ldr	r4, [pc, #360]	@ (8000720 <HAL_GPIO_Init+0x354>)
        if((GPIO_Init->Mode & TRIGGER_RISING) != 0x00u)
 80005b8:	02ee      	lsls	r6, r5, #11
        temp = EXTI->RTSR;
 80005ba:	68a4      	ldr	r4, [r4, #8]
        temp &= ~(iocurrent);
 80005bc:	ea6f 070c 	mvn.w	r7, ip
        if((GPIO_Init->Mode & TRIGGER_RISING) != 0x00u)
 80005c0:	d47c      	bmi.n	80006bc <HAL_GPIO_Init+0x2f0>
        temp &= ~(iocurrent);
 80005c2:	403c      	ands	r4, r7
        EXTI->RTSR = temp;
 80005c4:	4e56      	ldr	r6, [pc, #344]	@ (8000720 <HAL_GPIO_Init+0x354>)
 80005c6:	60b4      	str	r4, [r6, #8]
        temp = EXTI->FTSR;
 80005c8:	68f4      	ldr	r4, [r6, #12]
        if((GPIO_Init->Mode & TRIGGER_FALLING) != 0x00u)
 80005ca:	02ae      	lsls	r6, r5, #10
 80005cc:	f100 8085 	bmi.w	80006da <HAL_GPIO_Init+0x30e>
        temp &= ~(iocurrent);
 80005d0:	403c      	ands	r4, r7
        EXTI->FTSR = temp;
 80005d2:	4e53      	ldr	r6, [pc, #332]	@ (8000720 <HAL_GPIO_Init+0x354>)
 80005d4:	60f4      	str	r4, [r6, #12]
        temp = EXTI->EMR;
 80005d6:	6874      	ldr	r4, [r6, #4]
        if((GPIO_Init->Mode & EXTI_EVT) != 0x00u)
 80005d8:	03ae      	lsls	r6, r5, #14
 80005da:	d47b      	bmi.n	80006d4 <HAL_GPIO_Init+0x308>
        temp &= ~(iocurrent);
 80005dc:	403c      	ands	r4, r7
        EXTI->EMR = temp;
 80005de:	4e50      	ldr	r6, [pc, #320]	@ (8000720 <HAL_GPIO_Init+0x354>)
        if((GPIO_Init->Mode & EXTI_IT) != 0x00u)
 80005e0:	03ed      	lsls	r5, r5, #15
        EXTI->EMR = temp;
 80005e2:	6074      	str	r4, [r6, #4]
        temp = EXTI->IMR;
 80005e4:	6834      	ldr	r4, [r6, #0]
        if((GPIO_Init->Mode & EXTI_IT) != 0x00u)
 80005e6:	d472      	bmi.n	80006ce <HAL_GPIO_Init+0x302>
        temp &= ~(iocurrent);
 80005e8:	403c      	ands	r4, r7
        EXTI->IMR = temp;
 80005ea:	4d4d      	ldr	r5, [pc, #308]	@ (8000720 <HAL_GPIO_Init+0x354>)
 80005ec:	602c      	str	r4, [r5, #0]
    position++;
 80005ee:	3201      	adds	r2, #1
  while (((GPIO_Init->Pin) >> position) != 0x00u)
 80005f0:	fa33 f402 	lsrs.w	r4, r3, r2
 80005f4:	f43f af7a 	beq.w	80004ec <HAL_GPIO_Init+0x120>
    iocurrent = (GPIO_Init->Pin) & (1uL << position);
 80005f8:	fa0b fe02 	lsl.w	lr, fp, r2
    if (iocurrent != 0x00u)
 80005fc:	ea13 0c0e 	ands.w	ip, r3, lr
 8000600:	d0f5      	beq.n	80005ee <HAL_GPIO_Init+0x222>
      if(((GPIO_Init->Mode & GPIO_MODE) == MODE_OUTPUT) || ((GPIO_Init->Mode & GPIO_MODE) == MODE_AF))
 8000602:	684d      	ldr	r5, [r1, #4]
 8000604:	0057      	lsls	r7, r2, #1
        temp &= ~(GPIO_OSPEEDER_OSPEEDR0 << (position * 2u));
 8000606:	2603      	movs	r6, #3
 8000608:	fa06 f807 	lsl.w	r8, r6, r7
      if(((GPIO_Init->Mode & GPIO_MODE) == MODE_OUTPUT) || ((GPIO_Init->Mode & GPIO_MODE) == MODE_AF))
 800060c:	f005 0403 	and.w	r4, r5, #3
        temp &= ~(GPIO_OSPEEDER_OSPEEDR0 << (position * 2u));
 8000610:	ea6f 0a08 	mvn.w	sl, r8
      if(((GPIO_Init->Mode & GPIO_MODE) == MODE_OUTPUT) || ((GPIO_Init->Mode & GPIO_MODE) == MODE_AF))
 8000614:	f104 38ff 	add.w	r8, r4, #4294967295
 8000618:	f1b8 0f01 	cmp.w	r8, #1
 800061c:	f67f af69 	bls.w	80004f2 <HAL_GPIO_Init+0x126>
      if((GPIO_Init->Mode & GPIO_MODE) != MODE_ANALOG)
 8000620:	2c03      	cmp	r4, #3
 8000622:	d0a4      	beq.n	800056e <HAL_GPIO_Init+0x1a2>
        temp = GPIOx->PUPDR;
 8000624:	f04f 4890 	mov.w	r8, #1207959552	@ 0x48000000
        temp |= ((GPIO_Init->Pull) << (position * 2u));
 8000628:	688e      	ldr	r6, [r1, #8]
        temp = GPIOx->PUPDR;
 800062a:	f8d8 900c 	ldr.w	r9, [r8, #12]
        temp |= ((GPIO_Init->Pull) << (position * 2u));
 800062e:	fa06 fe07 	lsl.w	lr, r6, r7
        temp &= ~(GPIO_PUPDR_PUPDR0 << (position * 2u));
 8000632:	ea0a 0909 	and.w	r9, sl, r9
        temp |= ((GPIO_Init->Pull) << (position * 2u));
 8000636:	ea4e 0e09 	orr.w	lr, lr, r9
        GPIOx->PUPDR = temp;
 800063a:	f8c8 e00c 	str.w	lr, [r8, #12]
      if((GPIO_Init->Mode & GPIO_MODE) == MODE_AF)
 800063e:	e796      	b.n	800056e <HAL_GPIO_Init+0x1a2>
        temp = GPIOx->OSPEEDR;
 8000640:	f8d0 9008 	ldr.w	r9, [r0, #8]
        temp |= (GPIO_Init->Speed << (position * 2u));
 8000644:	68cb      	ldr	r3, [r1, #12]
        temp &= ~(GPIO_OSPEEDER_OSPEEDR0 << (position * 2u));
 8000646:	ea09 0906 	and.w	r9, r9, r6
        temp |= (GPIO_Init->Speed << (position * 2u));
 800064a:	fa03 f804 	lsl.w	r8, r3, r4
 800064e:	ea48 0809 	orr.w	r8, r8, r9
        GPIOx->OSPEEDR = temp;
 8000652:	f8c0 8008 	str.w	r8, [r0, #8]
        temp = GPIOx->OTYPER;
 8000656:	f8d0 8004 	ldr.w	r8, [r0, #4]
        temp |= ((GPIO_Init->Pull) << (position * 2u));
 800065a:	688b      	ldr	r3, [r1, #8]
        temp &= ~(GPIO_OTYPER_OT_0 << position) ;
 800065c:	ea28 080c 	bic.w	r8, r8, ip
        temp |= (((GPIO_Init->Mode & OUTPUT_TYPE) >> OUTPUT_TYPE_Pos) << position);
 8000660:	f3c5 1c00 	ubfx	ip, r5, #4, #1
 8000664:	fa0c fc02 	lsl.w	ip, ip, r2
 8000668:	ea4c 0c08 	orr.w	ip, ip, r8
        GPIOx->OTYPER = temp;
 800066c:	f8c0 c004 	str.w	ip, [r0, #4]
        temp = GPIOx->PUPDR;
 8000670:	f8d0 800c 	ldr.w	r8, [r0, #12]
        temp |= ((GPIO_Init->Pull) << (position * 2u));
 8000674:	fa03 fc04 	lsl.w	ip, r3, r4
        temp &= ~(GPIO_PUPDR_PUPDR0 << (position * 2u));
 8000678:	ea08 0806 	and.w	r8, r8, r6
        temp |= ((GPIO_Init->Pull) << (position * 2u));
 800067c:	ea4c 0c08 	orr.w	ip, ip, r8
      if((GPIO_Init->Mode & GPIO_MODE) == MODE_AF)
 8000680:	2f02      	cmp	r7, #2
        GPIOx->PUPDR = temp;
 8000682:	f8c0 c00c 	str.w	ip, [r0, #12]
      if((GPIO_Init->Mode & GPIO_MODE) == MODE_AF)
 8000686:	f47f aecb 	bne.w	8000420 <HAL_GPIO_Init+0x54>
        temp |= ((GPIO_Init->Alternate) << ((position & 0x07u) * 4u));
 800068a:	690b      	ldr	r3, [r1, #16]
        temp = GPIOx->AFR[position >> 3u];
 800068c:	ea4f 08d2 	mov.w	r8, r2, lsr #3
        temp &= ~(0xFu << ((position & 0x07u) * 4u));
 8000690:	f002 0c07 	and.w	ip, r2, #7
 8000694:	eb00 0888 	add.w	r8, r0, r8, lsl #2
 8000698:	ea4f 0c8c 	mov.w	ip, ip, lsl #2
        temp |= ((GPIO_Init->Alternate) << ((position & 0x07u) * 4u));
 800069c:	fa03 f30c 	lsl.w	r3, r3, ip
        temp = GPIOx->AFR[position >> 3u];
 80006a0:	f8d8 9020 	ldr.w	r9, [r8, #32]
        temp |= ((GPIO_Init->Alternate) << ((position & 0x07u) * 4u));
 80006a4:	9301      	str	r3, [sp, #4]
        temp &= ~(0xFu << ((position & 0x07u) * 4u));
 80006a6:	230f      	movs	r3, #15
 80006a8:	fa03 fc0c 	lsl.w	ip, r3, ip
        temp |= ((GPIO_Init->Alternate) << ((position & 0x07u) * 4u));
 80006ac:	9b01      	ldr	r3, [sp, #4]
        temp &= ~(0xFu << ((position & 0x07u) * 4u));
 80006ae:	ea29 090c 	bic.w	r9, r9, ip
        temp |= ((GPIO_Init->Alternate) << ((position & 0x07u) * 4u));
 80006b2:	ea43 0c09 	orr.w	ip, r3, r9
        GPIOx->AFR[position >> 3u] = temp;
 80006b6:	f8c8 c020 	str.w	ip, [r8, #32]
 80006ba:	e6b1      	b.n	8000420 <HAL_GPIO_Init+0x54>
          temp |= iocurrent;
 80006bc:	ea44 040c 	orr.w	r4, r4, ip
 80006c0:	e780      	b.n	80005c4 <HAL_GPIO_Init+0x1f8>
        temp |= (GPIO_GET_INDEX(GPIOx) << (4u * (position & 0x03u)));
 80006c2:	f04f 0c02 	mov.w	ip, #2
 80006c6:	fa0c f707 	lsl.w	r7, ip, r7
 80006ca:	433e      	orrs	r6, r7
 80006cc:	e6e2      	b.n	8000494 <HAL_GPIO_Init+0xc8>
          temp |= iocurrent;
 80006ce:	ea4c 0404 	orr.w	r4, ip, r4
 80006d2:	e78a      	b.n	80005ea <HAL_GPIO_Init+0x21e>
          temp |= iocurrent;
 80006d4:	ea44 040c 	orr.w	r4, r4, ip
 80006d8:	e781      	b.n	80005de <HAL_GPIO_Init+0x212>
          temp |= iocurrent;
 80006da:	ea4c 0404 	orr.w	r4, ip, r4
 80006de:	e778      	b.n	80005d2 <HAL_GPIO_Init+0x206>
        temp |= (GPIO_GET_INDEX(GPIOx) << (4u * (position & 0x03u)));
 80006e0:	f04f 0c01 	mov.w	ip, #1
 80006e4:	fa0c f707 	lsl.w	r7, ip, r7
 80006e8:	433e      	orrs	r6, r7
 80006ea:	e6d3      	b.n	8000494 <HAL_GPIO_Init+0xc8>
 80006ec:	f04f 0c03 	mov.w	ip, #3
 80006f0:	fa0c f707 	lsl.w	r7, ip, r7
 80006f4:	433e      	orrs	r6, r7
 80006f6:	e6cd      	b.n	8000494 <HAL_GPIO_Init+0xc8>
 80006f8:	4770      	bx	lr
        temp = GPIOx->PUPDR;
 80006fa:	f8d0 800c 	ldr.w	r8, [r0, #12]
        temp |= ((GPIO_Init->Pull) << (position * 2u));
 80006fe:	688b      	ldr	r3, [r1, #8]
        temp &= ~(GPIO_PUPDR_PUPDR0 << (position * 2u));
 8000700:	ea08 0806 	and.w	r8, r8, r6
        temp |= ((GPIO_Init->Pull) << (position * 2u));
 8000704:	fa03 fc04 	lsl.w	ip, r3, r4
 8000708:	ea4c 0c08 	orr.w	ip, ip, r8
        GPIOx->PUPDR = temp;
 800070c:	f8c0 c00c 	str.w	ip, [r0, #12]
      if((GPIO_Init->Mode & GPIO_MODE) == MODE_AF)
 8000710:	e686      	b.n	8000420 <HAL_GPIO_Init+0x54>
 8000712:	bf00      	nop
 8000714:	40021000 	.word	0x40021000
 8000718:	48000400 	.word	0x48000400
 800071c:	48000800 	.word	0x48000800
 8000720:	40010400 	.word	0x40010400
 8000724:	48000c00 	.word	0x48000c00
 8000728:	48001000 	.word	0x48001000

0800072c <HAL_GPIO_ReadPin>:
  GPIO_PinState bitstatus;

  /* Check the parameters */
  assert_param(IS_GPIO_PIN(GPIO_Pin));

  if((GPIOx->IDR & GPIO_Pin) != (uint32_t)GPIO_PIN_RESET)
 800072c:	6903      	ldr	r3, [r0, #16]
 800072e:	4219      	tst	r1, r3
  else
  {
    bitstatus = GPIO_PIN_RESET;
  }
  return bitstatus;
}
 8000730:	bf14      	ite	ne
 8000732:	2001      	movne	r0, #1
 8000734:	2000      	moveq	r0, #0
 8000736:	4770      	bx	lr

08000738 <HAL_GPIO_WritePin>:
{
  /* Check the parameters */
  assert_param(IS_GPIO_PIN(GPIO_Pin));
  assert_param(IS_GPIO_PIN_ACTION(PinState));

  if(PinState != GPIO_PIN_RESET)
 8000738:	b10a      	cbz	r2, 800073e <HAL_GPIO_WritePin+0x6>
  {
    GPIOx->BSRR = (uint32_t)GPIO_Pin;
 800073a:	6181      	str	r1, [r0, #24]
 800073c:	4770      	bx	lr
  }
  else
  {
    GPIOx->BRR = (uint32_t)GPIO_Pin;
 800073e:	6281      	str	r1, [r0, #40]	@ 0x28
  }
}
 8000740:	4770      	bx	lr
 8000742:	bf00      	nop

08000744 <HAL_PCD_Init>:
HAL_StatusTypeDef HAL_PCD_Init(PCD_HandleTypeDef *hpcd)
{
  uint8_t i;

  /* Check the PCD handle allocation */
  if (hpcd == NULL)
 8000744:	2800      	cmp	r0, #0
 8000746:	f000 80d3 	beq.w	80008f0 <HAL_PCD_Init+0x1ac>
{
 800074a:	b510      	push	{r4, lr}
  }

  /* Check the parameters */
  assert_param(IS_PCD_ALL_INSTANCE(hpcd->Instance));

  if (hpcd->State == HAL_PCD_STATE_RESET)
 800074c:	f890 3291 	ldrb.w	r3, [r0, #657]	@ 0x291
 8000750:	4604      	mov	r4, r0
 8000752:	f003 02ff 	and.w	r2, r3, #255	@ 0xff
 8000756:	2b00      	cmp	r3, #0
 8000758:	f000 80c5 	beq.w	80008e6 <HAL_PCD_Init+0x1a2>
    /* Init the low level hardware : GPIO, CLOCK, NVIC... */
    HAL_PCD_MspInit(hpcd);
#endif /* (USE_HAL_PCD_REGISTER_CALLBACKS) */
  }

  hpcd->State = HAL_PCD_STATE_BUSY;
 800075c:	2303      	movs	r3, #3

  /* Disable the Interrupts */
  __HAL_PCD_DISABLE(hpcd);
 800075e:	6820      	ldr	r0, [r4, #0]
  hpcd->State = HAL_PCD_STATE_BUSY;
 8000760:	f884 3291 	strb.w	r3, [r4, #657]	@ 0x291
  __HAL_PCD_DISABLE(hpcd);
 8000764:	f002 f942 	bl	80029ec <USB_DisableGlobalInt>

  /* Init endpoints structures */
  for (i = 0U; i < hpcd->Init.dev_endpoints; i++)
 8000768:	7922      	ldrb	r2, [r4, #4]
 800076a:	2a00      	cmp	r2, #0
 800076c:	f000 80ae 	beq.w	80008cc <HAL_PCD_Init+0x188>
  {
    /* Init ep structure */
    hpcd->IN_ep[i].is_in = 1U;
    hpcd->IN_ep[i].num = i;
    /* Control until ep is activated */
    hpcd->IN_ep[i].type = EP_TYPE_CTRL;
 8000770:	2300      	movs	r3, #0
    hpcd->IN_ep[i].num = i;
 8000772:	f44f 7180 	mov.w	r1, #256	@ 0x100
  for (i = 0U; i < hpcd->Init.dev_endpoints; i++)
 8000776:	2a01      	cmp	r2, #1
    hpcd->IN_ep[i].maxpacket = 0U;
    hpcd->IN_ep[i].xfer_buff = 0U;
 8000778:	e9c4 3308 	strd	r3, r3, [r4, #32]
    hpcd->IN_ep[i].num = i;
 800077c:	8221      	strh	r1, [r4, #16]
    hpcd->IN_ep[i].type = EP_TYPE_CTRL;
 800077e:	74e3      	strb	r3, [r4, #19]
    hpcd->IN_ep[i].xfer_len = 0U;
 8000780:	62a3      	str	r3, [r4, #40]	@ 0x28
  for (i = 0U; i < hpcd->Init.dev_endpoints; i++)
 8000782:	f000 80b7 	beq.w	80008f4 <HAL_PCD_Init+0x1b0>
    hpcd->IN_ep[i].num = i;
 8000786:	f240 1101 	movw	r1, #257	@ 0x101
  for (i = 0U; i < hpcd->Init.dev_endpoints; i++)
 800078a:	2a02      	cmp	r2, #2
    hpcd->IN_ep[i].xfer_buff = 0U;
 800078c:	e9c4 3312 	strd	r3, r3, [r4, #72]	@ 0x48
    hpcd->IN_ep[i].num = i;
 8000790:	8721      	strh	r1, [r4, #56]	@ 0x38
    hpcd->IN_ep[i].type = EP_TYPE_CTRL;
 8000792:	f884 303b 	strb.w	r3, [r4, #59]	@ 0x3b
    hpcd->IN_ep[i].xfer_len = 0U;
 8000796:	6523      	str	r3, [r4, #80]	@ 0x50
  for (i = 0U; i < hpcd->Init.dev_endpoints; i++)
 8000798:	d044      	beq.n	8000824 <HAL_PCD_Init+0xe0>
    hpcd->IN_ep[i].num = i;
 800079a:	f44f 7181 	mov.w	r1, #258	@ 0x102
  for (i = 0U; i < hpcd->Init.dev_endpoints; i++)
 800079e:	2a03      	cmp	r2, #3
    hpcd->IN_ep[i].xfer_buff = 0U;
 80007a0:	e9c4 331c 	strd	r3, r3, [r4, #112]	@ 0x70
    hpcd->IN_ep[i].num = i;
 80007a4:	f8a4 1060 	strh.w	r1, [r4, #96]	@ 0x60
    hpcd->IN_ep[i].type = EP_TYPE_CTRL;
 80007a8:	f884 3063 	strb.w	r3, [r4, #99]	@ 0x63
    hpcd->IN_ep[i].xfer_len = 0U;
 80007ac:	67a3      	str	r3, [r4, #120]	@ 0x78
  for (i = 0U; i < hpcd->Init.dev_endpoints; i++)
 80007ae:	d039      	beq.n	8000824 <HAL_PCD_Init+0xe0>
    hpcd->IN_ep[i].num = i;
 80007b0:	f240 1103 	movw	r1, #259	@ 0x103
  for (i = 0U; i < hpcd->Init.dev_endpoints; i++)
 80007b4:	2a04      	cmp	r2, #4
    hpcd->IN_ep[i].xfer_buff = 0U;
 80007b6:	e9c4 3326 	strd	r3, r3, [r4, #152]	@ 0x98
    hpcd->IN_ep[i].num = i;
 80007ba:	f8a4 1088 	strh.w	r1, [r4, #136]	@ 0x88
    hpcd->IN_ep[i].type = EP_TYPE_CTRL;
 80007be:	f884 308b 	strb.w	r3, [r4, #139]	@ 0x8b
    hpcd->IN_ep[i].xfer_len = 0U;
 80007c2:	f8c4 30a0 	str.w	r3, [r4, #160]	@ 0xa0
  for (i = 0U; i < hpcd->Init.dev_endpoints; i++)
 80007c6:	d02d      	beq.n	8000824 <HAL_PCD_Init+0xe0>
    hpcd->IN_ep[i].num = i;
 80007c8:	f44f 7182 	mov.w	r1, #260	@ 0x104
  for (i = 0U; i < hpcd->Init.dev_endpoints; i++)
 80007cc:	2a05      	cmp	r2, #5
    hpcd->IN_ep[i].xfer_buff = 0U;
 80007ce:	e9c4 3330 	strd	r3, r3, [r4, #192]	@ 0xc0
    hpcd->IN_ep[i].num = i;
 80007d2:	f8a4 10b0 	strh.w	r1, [r4, #176]	@ 0xb0
    hpcd->IN_ep[i].type = EP_TYPE_CTRL;
 80007d6:	f884 30b3 	strb.w	r3, [r4, #179]	@ 0xb3
    hpcd->IN_ep[i].xfer_len = 0U;
 80007da:	f8c4 30c8 	str.w	r3, [r4, #200]	@ 0xc8
  for (i = 0U; i < hpcd->Init.dev_endpoints; i++)
 80007de:	d021      	beq.n	8000824 <HAL_PCD_Init+0xe0>
    hpcd->IN_ep[i].num = i;
 80007e0:	f240 1105 	movw	r1, #261	@ 0x105
  for (i = 0U; i < hpcd->Init.dev_endpoints; i++)
 80007e4:	2a06      	cmp	r2, #6
    hpcd->IN_ep[i].xfer_buff = 0U;
 80007e6:	e9c4 333a 	strd	r3, r3, [r4, #232]	@ 0xe8
    hpcd->IN_ep[i].num = i;
 80007ea:	f8a4 10d8 	strh.w	r1, [r4, #216]	@ 0xd8
    hpcd->IN_ep[i].type = EP_TYPE_CTRL;
 80007ee:	f884 30db 	strb.w	r3, [r4, #219]	@ 0xdb
    hpcd->IN_ep[i].xfer_len = 0U;
 80007f2:	f8c4 30f0 	str.w	r3, [r4, #240]	@ 0xf0
  for (i = 0U; i < hpcd->Init.dev_endpoints; i++)
 80007f6:	d015      	beq.n	8000824 <HAL_PCD_Init+0xe0>
    hpcd->IN_ep[i].num = i;
 80007f8:	f44f 7183 	mov.w	r1, #262	@ 0x106
  for (i = 0U; i < hpcd->Init.dev_endpoints; i++)
 80007fc:	2a07      	cmp	r2, #7
    hpcd->IN_ep[i].xfer_buff = 0U;
 80007fe:	e9c4 3344 	strd	r3, r3, [r4, #272]	@ 0x110
    hpcd->IN_ep[i].num = i;
 8000802:	f8a4 1100 	strh.w	r1, [r4, #256]	@ 0x100
    hpcd->IN_ep[i].type = EP_TYPE_CTRL;
 8000806:	f884 3103 	strb.w	r3, [r4, #259]	@ 0x103
    hpcd->IN_ep[i].xfer_len = 0U;
 800080a:	f8c4 3118 	str.w	r3, [r4, #280]	@ 0x118
  for (i = 0U; i < hpcd->Init.dev_endpoints; i++)
 800080e:	d009      	beq.n	8000824 <HAL_PCD_Init+0xe0>
    hpcd->IN_ep[i].xfer_buff = 0U;
 8000810:	e9c4 334e 	strd	r3, r3, [r4, #312]	@ 0x138
    hpcd->IN_ep[i].num = i;
 8000814:	f240 1107 	movw	r1, #263	@ 0x107
 8000818:	f8a4 1128 	strh.w	r1, [r4, #296]	@ 0x128
    hpcd->IN_ep[i].type = EP_TYPE_CTRL;
 800081c:	f884 312b 	strb.w	r3, [r4, #299]	@ 0x12b
    hpcd->IN_ep[i].xfer_len = 0U;
 8000820:	f8c4 3140 	str.w	r3, [r4, #320]	@ 0x140
  }

  for (i = 0U; i < hpcd->Init.dev_endpoints; i++)
  {
    hpcd->OUT_ep[i].is_in = 0U;
    hpcd->OUT_ep[i].num = i;
 8000824:	2300      	movs	r3, #0
 8000826:	2101      	movs	r1, #1
  for (i = 0U; i < hpcd->Init.dev_endpoints; i++)
 8000828:	2a02      	cmp	r2, #2
    /* Control until ep is activated */
    hpcd->OUT_ep[i].type = EP_TYPE_CTRL;
    hpcd->OUT_ep[i].maxpacket = 0U;
    hpcd->OUT_ep[i].xfer_buff = 0U;
 800082a:	e9c4 3358 	strd	r3, r3, [r4, #352]	@ 0x160
 800082e:	e9c4 3362 	strd	r3, r3, [r4, #392]	@ 0x188
    hpcd->OUT_ep[i].num = i;
 8000832:	f8a4 3150 	strh.w	r3, [r4, #336]	@ 0x150
    hpcd->OUT_ep[i].type = EP_TYPE_CTRL;
 8000836:	f884 3153 	strb.w	r3, [r4, #339]	@ 0x153
    hpcd->OUT_ep[i].xfer_len = 0U;
 800083a:	f8c4 3168 	str.w	r3, [r4, #360]	@ 0x168
    hpcd->OUT_ep[i].num = i;
 800083e:	f8a4 1178 	strh.w	r1, [r4, #376]	@ 0x178
    hpcd->OUT_ep[i].type = EP_TYPE_CTRL;
 8000842:	f884 317b 	strb.w	r3, [r4, #379]	@ 0x17b
    hpcd->OUT_ep[i].xfer_len = 0U;
 8000846:	f8c4 3190 	str.w	r3, [r4, #400]	@ 0x190
  for (i = 0U; i < hpcd->Init.dev_endpoints; i++)
 800084a:	d03f      	beq.n	80008cc <HAL_PCD_Init+0x188>
    hpcd->OUT_ep[i].num = i;
 800084c:	2102      	movs	r1, #2
  for (i = 0U; i < hpcd->Init.dev_endpoints; i++)
 800084e:	2a03      	cmp	r2, #3
    hpcd->OUT_ep[i].xfer_buff = 0U;
 8000850:	e9c4 336c 	strd	r3, r3, [r4, #432]	@ 0x1b0
    hpcd->OUT_ep[i].num = i;
 8000854:	f8a4 11a0 	strh.w	r1, [r4, #416]	@ 0x1a0
    hpcd->OUT_ep[i].type = EP_TYPE_CTRL;
 8000858:	f884 31a3 	strb.w	r3, [r4, #419]	@ 0x1a3
    hpcd->OUT_ep[i].xfer_len = 0U;
 800085c:	f8c4 31b8 	str.w	r3, [r4, #440]	@ 0x1b8
  for (i = 0U; i < hpcd->Init.dev_endpoints; i++)
 8000860:	d034      	beq.n	80008cc <HAL_PCD_Init+0x188>
    hpcd->OUT_ep[i].num = i;
 8000862:	2103      	movs	r1, #3
  for (i = 0U; i < hpcd->Init.dev_endpoints; i++)
 8000864:	2a04      	cmp	r2, #4
    hpcd->OUT_ep[i].xfer_buff = 0U;
 8000866:	e9c4 3376 	strd	r3, r3, [r4, #472]	@ 0x1d8
    hpcd->OUT_ep[i].num = i;
 800086a:	f8a4 11c8 	strh.w	r1, [r4, #456]	@ 0x1c8
    hpcd->OUT_ep[i].type = EP_TYPE_CTRL;
 800086e:	f884 31cb 	strb.w	r3, [r4, #459]	@ 0x1cb
    hpcd->OUT_ep[i].xfer_len = 0U;
 8000872:	f8c4 31e0 	str.w	r3, [r4, #480]	@ 0x1e0
  for (i = 0U; i < hpcd->Init.dev_endpoints; i++)
 8000876:	d029      	beq.n	80008cc <HAL_PCD_Init+0x188>
    hpcd->OUT_ep[i].num = i;
 8000878:	2104      	movs	r1, #4
  for (i = 0U; i < hpcd->Init.dev_endpoints; i++)
 800087a:	2a05      	cmp	r2, #5
    hpcd->OUT_ep[i].xfer_buff = 0U;
 800087c:	e9c4 3380 	strd	r3, r3, [r4, #512]	@ 0x200
    hpcd->OUT_ep[i].num = i;
 8000880:	f8a4 11f0 	strh.w	r1, [r4, #496]	@ 0x1f0
    hpcd->OUT_ep[i].type = EP_TYPE_CTRL;
 8000884:	f884 31f3 	strb.w	r3, [r4, #499]	@ 0x1f3
    hpcd->OUT_ep[i].xfer_len = 0U;
 8000888:	f8c4 3208 	str.w	r3, [r4, #520]	@ 0x208
  for (i = 0U; i < hpcd->Init.dev_endpoints; i++)
 800088c:	d01e      	beq.n	80008cc <HAL_PCD_Init+0x188>
    hpcd->OUT_ep[i].num = i;
 800088e:	2105      	movs	r1, #5
  for (i = 0U; i < hpcd->Init.dev_endpoints; i++)
 8000890:	2a06      	cmp	r2, #6
    hpcd->OUT_ep[i].xfer_buff = 0U;
 8000892:	e9c4 338a 	strd	r3, r3, [r4, #552]	@ 0x228
    hpcd->OUT_ep[i].num = i;
 8000896:	f8a4 1218 	strh.w	r1, [r4, #536]	@ 0x218
    hpcd->OUT_ep[i].type = EP_TYPE_CTRL;
 800089a:	f884 321b 	strb.w	r3, [r4, #539]	@ 0x21b
    hpcd->OUT_ep[i].xfer_len = 0U;
 800089e:	f8c4 3230 	str.w	r3, [r4, #560]	@ 0x230
  for (i = 0U; i < hpcd->Init.dev_endpoints; i++)
 80008a2:	d013      	beq.n	80008cc <HAL_PCD_Init+0x188>
    hpcd->OUT_ep[i].num = i;
 80008a4:	2106      	movs	r1, #6
  for (i = 0U; i < hpcd->Init.dev_endpoints; i++)
 80008a6:	2a07      	cmp	r2, #7
    hpcd->OUT_ep[i].xfer_buff = 0U;
 80008a8:	e9c4 3394 	strd	r3, r3, [r4, #592]	@ 0x250
    hpcd->OUT_ep[i].num = i;
 80008ac:	f8a4 1240 	strh.w	r1, [r4, #576]	@ 0x240
    hpcd->OUT_ep[i].type = EP_TYPE_CTRL;
 80008b0:	f884 3243 	strb.w	r3, [r4, #579]	@ 0x243
    hpcd->OUT_ep[i].xfer_len = 0U;
 80008b4:	f8c4 3258 	str.w	r3, [r4, #600]	@ 0x258
  for (i = 0U; i < hpcd->Init.dev_endpoints; i++)
 80008b8:	d008      	beq.n	80008cc <HAL_PCD_Init+0x188>
    hpcd->OUT_ep[i].xfer_buff = 0U;
 80008ba:	e9c4 339e 	strd	r3, r3, [r4, #632]	@ 0x278
    hpcd->OUT_ep[i].num = i;
 80008be:	2207      	movs	r2, #7
 80008c0:	f8a4 2268 	strh.w	r2, [r4, #616]	@ 0x268
    hpcd->OUT_ep[i].type = EP_TYPE_CTRL;
 80008c4:	f884 326b 	strb.w	r3, [r4, #619]	@ 0x26b
    hpcd->OUT_ep[i].xfer_len = 0U;
 80008c8:	f8c4 3280 	str.w	r3, [r4, #640]	@ 0x280
  }

  /* Init Device */
  (void)USB_DevInit(hpcd->Instance, hpcd->Init);
 80008cc:	4623      	mov	r3, r4
 80008ce:	f853 0b04 	ldr.w	r0, [r3], #4
 80008d2:	e893 0006 	ldmia.w	r3, {r1, r2}
 80008d6:	f002 f893 	bl	8002a00 <USB_DevInit>

  hpcd->USB_Address = 0U;
 80008da:	2000      	movs	r0, #0
  hpcd->State = HAL_PCD_STATE_READY;
 80008dc:	2301      	movs	r3, #1
  hpcd->USB_Address = 0U;
 80008de:	7320      	strb	r0, [r4, #12]
  hpcd->State = HAL_PCD_STATE_READY;
 80008e0:	f884 3291 	strb.w	r3, [r4, #657]	@ 0x291
  return HAL_OK;
}
 80008e4:	bd10      	pop	{r4, pc}
    hpcd->Lock = HAL_UNLOCKED;
 80008e6:	f880 2290 	strb.w	r2, [r0, #656]	@ 0x290
    HAL_PCD_MspInit(hpcd);
 80008ea:	f002 fda1 	bl	8003430 <HAL_PCD_MspInit>
 80008ee:	e735      	b.n	800075c <HAL_PCD_Init+0x18>
    return HAL_ERROR;
 80008f0:	2001      	movs	r0, #1
}
 80008f2:	4770      	bx	lr
    hpcd->OUT_ep[i].xfer_buff = 0U;
 80008f4:	e9c4 3358 	strd	r3, r3, [r4, #352]	@ 0x160
    hpcd->OUT_ep[i].num = i;
 80008f8:	f8a4 3150 	strh.w	r3, [r4, #336]	@ 0x150
    hpcd->OUT_ep[i].type = EP_TYPE_CTRL;
 80008fc:	f884 3153 	strb.w	r3, [r4, #339]	@ 0x153
    hpcd->OUT_ep[i].xfer_len = 0U;
 8000900:	f8c4 3168 	str.w	r3, [r4, #360]	@ 0x168
  for (i = 0U; i < hpcd->Init.dev_endpoints; i++)
 8000904:	e7e2      	b.n	80008cc <HAL_PCD_Init+0x188>
 8000906:	bf00      	nop

08000908 <HAL_RCC_OscConfig>:
#if defined(RCC_CFGR_PLLSRC_HSI_PREDIV)
  uint32_t pll_config2;
#endif /* RCC_CFGR_PLLSRC_HSI_PREDIV */

  /* Check Null pointer */
  if(RCC_OscInitStruct == NULL)
 8000908:	2800      	cmp	r0, #0
 800090a:	f000 82bb 	beq.w	8000e84 <HAL_RCC_OscConfig+0x57c>
{
 800090e:	e92d 43f0 	stmdb	sp!, {r4, r5, r6, r7, r8, r9, lr}

  /* Check the parameters */
  assert_param(IS_RCC_OSCILLATORTYPE(RCC_OscInitStruct->OscillatorType));

  /*------------------------------- HSE Configuration ------------------------*/ 
  if(((RCC_OscInitStruct->OscillatorType) & RCC_OSCILLATORTYPE_HSE) == RCC_OSCILLATORTYPE_HSE)
 8000912:	6803      	ldr	r3, [r0, #0]
 8000914:	07d9      	lsls	r1, r3, #31
{
 8000916:	b083      	sub	sp, #12
 8000918:	4604      	mov	r4, r0
  if(((RCC_OscInitStruct->OscillatorType) & RCC_OSCILLATORTYPE_HSE) == RCC_OSCILLATORTYPE_HSE)
 800091a:	d54b      	bpl.n	80009b4 <HAL_RCC_OscConfig+0xac>
  {
    /* Check the parameters */
    assert_param(IS_RCC_HSE(RCC_OscInitStruct->HSEState));

    /* When the HSE is used as system clock or clock source for PLL in these cases it is not allowed to be disabled */
    if((__HAL_RCC_GET_SYSCLK_SOURCE() == RCC_SYSCLKSOURCE_STATUS_HSE) 
 800091c:	49ac      	ldr	r1, [pc, #688]	@ (8000bd0 <HAL_RCC_OscConfig+0x2c8>)
 800091e:	684a      	ldr	r2, [r1, #4]
 8000920:	f002 020c 	and.w	r2, r2, #12
 8000924:	2a04      	cmp	r2, #4
 8000926:	f000 815d 	beq.w	8000be4 <HAL_RCC_OscConfig+0x2dc>
       || ((__HAL_RCC_GET_SYSCLK_SOURCE() == RCC_SYSCLKSOURCE_STATUS_PLLCLK) && (__HAL_RCC_GET_PLL_OSCSOURCE() == RCC_PLLSOURCE_HSE)))
 800092a:	684a      	ldr	r2, [r1, #4]
 800092c:	f002 020c 	and.w	r2, r2, #12
 8000930:	2a08      	cmp	r2, #8
 8000932:	f000 8153 	beq.w	8000bdc <HAL_RCC_OscConfig+0x2d4>
      /* Set the new HSE configuration ---------------------------------------*/
      __HAL_RCC_HSE_CONFIG(RCC_OscInitStruct->HSEState);
      
#if defined(RCC_CFGR_PLLSRC_HSI_DIV2)
      /* Configure the HSE predivision factor --------------------------------*/
      __HAL_RCC_HSE_PREDIV_CONFIG(RCC_OscInitStruct->HSEPredivValue);
 8000936:	e9d4 3201 	ldrd	r3, r2, [r4, #4]
      __HAL_RCC_HSE_CONFIG(RCC_OscInitStruct->HSEState);
 800093a:	f5b3 3f80 	cmp.w	r3, #65536	@ 0x10000
 800093e:	d015      	beq.n	800096c <HAL_RCC_OscConfig+0x64>
 8000940:	2b00      	cmp	r3, #0
 8000942:	f000 8189 	beq.w	8000c58 <HAL_RCC_OscConfig+0x350>
 8000946:	f5b3 2fa0 	cmp.w	r3, #327680	@ 0x50000
 800094a:	f000 8236 	beq.w	8000dba <HAL_RCC_OscConfig+0x4b2>
 800094e:	4ba0      	ldr	r3, [pc, #640]	@ (8000bd0 <HAL_RCC_OscConfig+0x2c8>)
 8000950:	6819      	ldr	r1, [r3, #0]
 8000952:	f421 3180 	bic.w	r1, r1, #65536	@ 0x10000
 8000956:	6019      	str	r1, [r3, #0]
 8000958:	6819      	ldr	r1, [r3, #0]
 800095a:	f421 2180 	bic.w	r1, r1, #262144	@ 0x40000
 800095e:	6019      	str	r1, [r3, #0]
      __HAL_RCC_HSE_PREDIV_CONFIG(RCC_OscInitStruct->HSEPredivValue);
 8000960:	6ad9      	ldr	r1, [r3, #44]	@ 0x2c
 8000962:	f021 010f 	bic.w	r1, r1, #15
 8000966:	430a      	orrs	r2, r1
 8000968:	62da      	str	r2, [r3, #44]	@ 0x2c
#endif /* RCC_CFGR_PLLSRC_HSI_DIV2 */

       /* Check the HSE State */
      if(RCC_OscInitStruct->HSEState != RCC_HSE_OFF)
 800096a:	e009      	b.n	8000980 <HAL_RCC_OscConfig+0x78>
      __HAL_RCC_HSE_CONFIG(RCC_OscInitStruct->HSEState);
 800096c:	4998      	ldr	r1, [pc, #608]	@ (8000bd0 <HAL_RCC_OscConfig+0x2c8>)
 800096e:	680b      	ldr	r3, [r1, #0]
 8000970:	f443 3380 	orr.w	r3, r3, #65536	@ 0x10000
 8000974:	600b      	str	r3, [r1, #0]
      __HAL_RCC_HSE_PREDIV_CONFIG(RCC_OscInitStruct->HSEPredivValue);
 8000976:	6acb      	ldr	r3, [r1, #44]	@ 0x2c
 8000978:	f023 030f 	bic.w	r3, r3, #15
 800097c:	4313      	orrs	r3, r2
 800097e:	62cb      	str	r3, [r1, #44]	@ 0x2c
      {
        /* Get Start Tick */
        tickstart = HAL_GetTick();
 8000980:	f7ff fc64 	bl	800024c <HAL_GetTick>
        
        /* Wait till HSE is ready */
        while(__HAL_RCC_GET_FLAG(RCC_FLAG_HSERDY) == RESET)
 8000984:	4f92      	ldr	r7, [pc, #584]	@ (8000bd0 <HAL_RCC_OscConfig+0x2c8>)
        tickstart = HAL_GetTick();
 8000986:	4605      	mov	r5, r0
  uint32_t result;

#if ((defined (__ARM_ARCH_7M__      ) && (__ARM_ARCH_7M__      == 1)) || \
     (defined (__ARM_ARCH_7EM__     ) && (__ARM_ARCH_7EM__     == 1)) || \
     (defined (__ARM_ARCH_8M_MAIN__ ) && (__ARM_ARCH_8M_MAIN__ == 1))    )
   __ASM volatile ("rbit %0, %1" : "=r" (result) : "r" (value) );
 8000988:	f44f 3800 	mov.w	r8, #131072	@ 0x20000
        while(__HAL_RCC_GET_FLAG(RCC_FLAG_HSERDY) == RESET)
 800098c:	2601      	movs	r6, #1
 800098e:	e005      	b.n	800099c <HAL_RCC_OscConfig+0x94>
        {
          if((HAL_GetTick() - tickstart ) > HSE_TIMEOUT_VALUE)
 8000990:	f7ff fc5c 	bl	800024c <HAL_GetTick>
 8000994:	1b40      	subs	r0, r0, r5
 8000996:	2864      	cmp	r0, #100	@ 0x64
 8000998:	f200 815a 	bhi.w	8000c50 <HAL_RCC_OscConfig+0x348>
 800099c:	fa98 f3a8 	rbit	r3, r8
        while(__HAL_RCC_GET_FLAG(RCC_FLAG_HSERDY) == RESET)
 80009a0:	683a      	ldr	r2, [r7, #0]
 80009a2:	fa98 f3a8 	rbit	r3, r8
 80009a6:	fab3 f383 	clz	r3, r3
 80009aa:	fa06 f303 	lsl.w	r3, r6, r3
 80009ae:	4213      	tst	r3, r2
 80009b0:	d0ee      	beq.n	8000990 <HAL_RCC_OscConfig+0x88>
        }
      }
    }
  }
  /*----------------------------- HSI Configuration --------------------------*/ 
  if(((RCC_OscInitStruct->OscillatorType) & RCC_OSCILLATORTYPE_HSI) == RCC_OSCILLATORTYPE_HSI)
 80009b2:	6823      	ldr	r3, [r4, #0]
 80009b4:	079f      	lsls	r7, r3, #30
 80009b6:	d53f      	bpl.n	8000a38 <HAL_RCC_OscConfig+0x130>
    /* Check the parameters */
    assert_param(IS_RCC_HSI(RCC_OscInitStruct->HSIState));
    assert_param(IS_RCC_CALIBRATION_VALUE(RCC_OscInitStruct->HSICalibrationValue));
    
    /* Check if HSI is used as system clock or as PLL source when PLL is selected as system clock */ 
    if((__HAL_RCC_GET_SYSCLK_SOURCE() == RCC_SYSCLKSOURCE_STATUS_HSI) 
 80009b8:	4a85      	ldr	r2, [pc, #532]	@ (8000bd0 <HAL_RCC_OscConfig+0x2c8>)
 80009ba:	6851      	ldr	r1, [r2, #4]
 80009bc:	f011 0f0c 	tst.w	r1, #12
 80009c0:	f000 80cb 	beq.w	8000b5a <HAL_RCC_OscConfig+0x252>
       || ((__HAL_RCC_GET_SYSCLK_SOURCE() == RCC_SYSCLKSOURCE_STATUS_PLLCLK) && (__HAL_RCC_GET_PLL_OSCSOURCE() == RCC_PLLSOURCE_HSI)))
 80009c4:	6851      	ldr	r1, [r2, #4]
 80009c6:	f001 010c 	and.w	r1, r1, #12
 80009ca:	2908      	cmp	r1, #8
 80009cc:	f000 80c1 	beq.w	8000b52 <HAL_RCC_OscConfig+0x24a>
      }
    }
    else
    {
      /* Check the HSI State */
      if(RCC_OscInitStruct->HSIState != RCC_HSI_OFF)
 80009d0:	6922      	ldr	r2, [r4, #16]
 80009d2:	2a00      	cmp	r2, #0
 80009d4:	f000 8194 	beq.w	8000d00 <HAL_RCC_OscConfig+0x3f8>
 80009d8:	2501      	movs	r5, #1
 80009da:	fa95 f3a5 	rbit	r3, r5
      {
       /* Enable the Internal High Speed oscillator (HSI). */
        __HAL_RCC_HSI_ENABLE();
 80009de:	fab3 f383 	clz	r3, r3
 80009e2:	f103 5384 	add.w	r3, r3, #276824064	@ 0x10800000
 80009e6:	f503 1384 	add.w	r3, r3, #1081344	@ 0x108000
 80009ea:	009b      	lsls	r3, r3, #2
        
        /* Get Start Tick */
        tickstart = HAL_GetTick();
        
        /* Wait till HSI is ready */
        while(__HAL_RCC_GET_FLAG(RCC_FLAG_HSIRDY) == RESET)
 80009ec:	4f78      	ldr	r7, [pc, #480]	@ (8000bd0 <HAL_RCC_OscConfig+0x2c8>)
        __HAL_RCC_HSI_ENABLE();
 80009ee:	601d      	str	r5, [r3, #0]
        tickstart = HAL_GetTick();
 80009f0:	f7ff fc2c 	bl	800024c <HAL_GetTick>
 80009f4:	f04f 0802 	mov.w	r8, #2
 80009f8:	4606      	mov	r6, r0
        while(__HAL_RCC_GET_FLAG(RCC_FLAG_HSIRDY) == RESET)
 80009fa:	e005      	b.n	8000a08 <HAL_RCC_OscConfig+0x100>
        {
          if((HAL_GetTick() - tickstart ) > HSI_TIMEOUT_VALUE)
 80009fc:	f7ff fc26 	bl	800024c <HAL_GetTick>
 8000a00:	1b80      	subs	r0, r0, r6
 8000a02:	2802      	cmp	r0, #2
 8000a04:	f200 8124 	bhi.w	8000c50 <HAL_RCC_OscConfig+0x348>
 8000a08:	fa98 f3a8 	rbit	r3, r8
        while(__HAL_RCC_GET_FLAG(RCC_FLAG_HSIRDY) == RESET)
 8000a0c:	683a      	ldr	r2, [r7, #0]
 8000a0e:	fa98 f3a8 	rbit	r3, r8
 8000a12:	fab3 f383 	clz	r3, r3
 8000a16:	fa05 f303 	lsl.w	r3, r5, r3
 8000a1a:	4213      	tst	r3, r2
 8000a1c:	d0ee      	beq.n	80009fc <HAL_RCC_OscConfig+0xf4>
            return HAL_TIMEOUT;
          }
        }
                
        /* Adjusts the Internal High Speed oscillator (HSI) calibration value.*/
        __HAL_RCC_HSI_CALIBRATIONVALUE_ADJUST(RCC_OscInitStruct->HSICalibrationValue);
 8000a1e:	6839      	ldr	r1, [r7, #0]
 8000a20:	22f8      	movs	r2, #248	@ 0xf8
 8000a22:	fa92 f2a2 	rbit	r2, r2
 8000a26:	6963      	ldr	r3, [r4, #20]
 8000a28:	fab2 f282 	clz	r2, r2
 8000a2c:	4093      	lsls	r3, r2
 8000a2e:	f021 02f8 	bic.w	r2, r1, #248	@ 0xf8
 8000a32:	4313      	orrs	r3, r2
 8000a34:	603b      	str	r3, [r7, #0]
        }
      }
    }
  }
  /*------------------------------ LSI Configuration -------------------------*/ 
  if(((RCC_OscInitStruct->OscillatorType) & RCC_OSCILLATORTYPE_LSI) == RCC_OSCILLATORTYPE_LSI)
 8000a36:	6823      	ldr	r3, [r4, #0]
 8000a38:	071d      	lsls	r5, r3, #28
 8000a3a:	d429      	bmi.n	8000a90 <HAL_RCC_OscConfig+0x188>
        }
      }
    }
  }
  /*------------------------------ LSE Configuration -------------------------*/ 
  if(((RCC_OscInitStruct->OscillatorType) & RCC_OSCILLATORTYPE_LSE) == RCC_OSCILLATORTYPE_LSE)
 8000a3c:	0758      	lsls	r0, r3, #29
 8000a3e:	d553      	bpl.n	8000ae8 <HAL_RCC_OscConfig+0x1e0>
    /* Check the parameters */
    assert_param(IS_RCC_LSE(RCC_OscInitStruct->LSEState));

    /* Update LSE configuration in Backup Domain control register    */
    /* Requires to enable write access to Backup Domain of necessary */
    if(__HAL_RCC_PWR_IS_CLK_DISABLED())
 8000a40:	4b63      	ldr	r3, [pc, #396]	@ (8000bd0 <HAL_RCC_OscConfig+0x2c8>)
 8000a42:	69da      	ldr	r2, [r3, #28]
 8000a44:	00d1      	lsls	r1, r2, #3
 8000a46:	f100 80c1 	bmi.w	8000bcc <HAL_RCC_OscConfig+0x2c4>
    {
      __HAL_RCC_PWR_CLK_ENABLE();
 8000a4a:	69da      	ldr	r2, [r3, #28]
 8000a4c:	f042 5280 	orr.w	r2, r2, #268435456	@ 0x10000000
 8000a50:	61da      	str	r2, [r3, #28]
 8000a52:	69db      	ldr	r3, [r3, #28]
 8000a54:	f003 5380 	and.w	r3, r3, #268435456	@ 0x10000000
 8000a58:	9301      	str	r3, [sp, #4]
 8000a5a:	9b01      	ldr	r3, [sp, #4]
      pwrclkchanged = SET;
 8000a5c:	2501      	movs	r5, #1
    }
    
    if(HAL_IS_BIT_CLR(PWR->CR, PWR_CR_DBP))
 8000a5e:	4e5d      	ldr	r6, [pc, #372]	@ (8000bd4 <HAL_RCC_OscConfig+0x2cc>)
 8000a60:	6833      	ldr	r3, [r6, #0]
 8000a62:	05da      	lsls	r2, r3, #23
 8000a64:	f140 80e4 	bpl.w	8000c30 <HAL_RCC_OscConfig+0x328>
        }
      }
    }

    /* Set the new LSE configuration -----------------------------------------*/
    __HAL_RCC_LSE_CONFIG(RCC_OscInitStruct->LSEState);
 8000a68:	68e3      	ldr	r3, [r4, #12]
 8000a6a:	2b01      	cmp	r3, #1
 8000a6c:	f000 816c 	beq.w	8000d48 <HAL_RCC_OscConfig+0x440>
 8000a70:	2b00      	cmp	r3, #0
 8000a72:	f000 8117 	beq.w	8000ca4 <HAL_RCC_OscConfig+0x39c>
 8000a76:	2b05      	cmp	r3, #5
 8000a78:	4b55      	ldr	r3, [pc, #340]	@ (8000bd0 <HAL_RCC_OscConfig+0x2c8>)
 8000a7a:	6a1a      	ldr	r2, [r3, #32]
 8000a7c:	f000 81a9 	beq.w	8000dd2 <HAL_RCC_OscConfig+0x4ca>
 8000a80:	f022 0201 	bic.w	r2, r2, #1
 8000a84:	621a      	str	r2, [r3, #32]
 8000a86:	6a1a      	ldr	r2, [r3, #32]
 8000a88:	f022 0204 	bic.w	r2, r2, #4
 8000a8c:	621a      	str	r2, [r3, #32]
    /* Check the LSE State */
    if(RCC_OscInitStruct->LSEState != RCC_LSE_OFF)
 8000a8e:	e160      	b.n	8000d52 <HAL_RCC_OscConfig+0x44a>
    if(RCC_OscInitStruct->LSIState != RCC_LSI_OFF)
 8000a90:	69a2      	ldr	r2, [r4, #24]
 8000a92:	2a00      	cmp	r2, #0
 8000a94:	d074      	beq.n	8000b80 <HAL_RCC_OscConfig+0x278>
 8000a96:	2601      	movs	r6, #1
 8000a98:	fa96 f2a6 	rbit	r2, r6
      __HAL_RCC_LSI_ENABLE();
 8000a9c:	4b4e      	ldr	r3, [pc, #312]	@ (8000bd8 <HAL_RCC_OscConfig+0x2d0>)
      while(__HAL_RCC_GET_FLAG(RCC_FLAG_LSIRDY) == RESET)
 8000a9e:	f8df 8130 	ldr.w	r8, [pc, #304]	@ 8000bd0 <HAL_RCC_OscConfig+0x2c8>
      __HAL_RCC_LSI_ENABLE();
 8000aa2:	fab2 f282 	clz	r2, r2
 8000aa6:	4413      	add	r3, r2
 8000aa8:	009b      	lsls	r3, r3, #2
 8000aaa:	2502      	movs	r5, #2
 8000aac:	601e      	str	r6, [r3, #0]
      tickstart = HAL_GetTick();
 8000aae:	f7ff fbcd 	bl	800024c <HAL_GetTick>
 8000ab2:	4607      	mov	r7, r0
      while(__HAL_RCC_GET_FLAG(RCC_FLAG_LSIRDY) == RESET)
 8000ab4:	e005      	b.n	8000ac2 <HAL_RCC_OscConfig+0x1ba>
        if((HAL_GetTick() - tickstart ) > LSI_TIMEOUT_VALUE)
 8000ab6:	f7ff fbc9 	bl	800024c <HAL_GetTick>
 8000aba:	1bc0      	subs	r0, r0, r7
 8000abc:	2802      	cmp	r0, #2
 8000abe:	f200 80c7 	bhi.w	8000c50 <HAL_RCC_OscConfig+0x348>
 8000ac2:	fa95 f3a5 	rbit	r3, r5
 8000ac6:	fa95 f3a5 	rbit	r3, r5
 8000aca:	fa95 f3a5 	rbit	r3, r5
      while(__HAL_RCC_GET_FLAG(RCC_FLAG_LSIRDY) == RESET)
 8000ace:	f8d8 2024 	ldr.w	r2, [r8, #36]	@ 0x24
 8000ad2:	fa95 f3a5 	rbit	r3, r5
 8000ad6:	fab3 f383 	clz	r3, r3
 8000ada:	fa06 f303 	lsl.w	r3, r6, r3
 8000ade:	4213      	tst	r3, r2
 8000ae0:	d0e9      	beq.n	8000ab6 <HAL_RCC_OscConfig+0x1ae>
  if(((RCC_OscInitStruct->OscillatorType) & RCC_OSCILLATORTYPE_LSE) == RCC_OSCILLATORTYPE_LSE)
 8000ae2:	6823      	ldr	r3, [r4, #0]
 8000ae4:	0758      	lsls	r0, r3, #29
 8000ae6:	d4ab      	bmi.n	8000a40 <HAL_RCC_OscConfig+0x138>
  }

  /*-------------------------------- PLL Configuration -----------------------*/
  /* Check the parameters */
  assert_param(IS_RCC_PLL(RCC_OscInitStruct->PLL.PLLState));
  if ((RCC_OscInitStruct->PLL.PLLState) != RCC_PLL_NONE)
 8000ae8:	69e3      	ldr	r3, [r4, #28]
 8000aea:	b373      	cbz	r3, 8000b4a <HAL_RCC_OscConfig+0x242>
  {
    /* Check if the PLL is used as system clock or not */
    if(__HAL_RCC_GET_SYSCLK_SOURCE() != RCC_SYSCLKSOURCE_STATUS_PLLCLK)
 8000aec:	4d38      	ldr	r5, [pc, #224]	@ (8000bd0 <HAL_RCC_OscConfig+0x2c8>)
 8000aee:	686a      	ldr	r2, [r5, #4]
 8000af0:	f002 020c 	and.w	r2, r2, #12
 8000af4:	2a08      	cmp	r2, #8
 8000af6:	f000 814f 	beq.w	8000d98 <HAL_RCC_OscConfig+0x490>
    { 
      if((RCC_OscInitStruct->PLL.PLLState) == RCC_PLL_ON)
 8000afa:	2b02      	cmp	r3, #2
 8000afc:	f04f 7380 	mov.w	r3, #16777216	@ 0x1000000
 8000b00:	f000 816f 	beq.w	8000de2 <HAL_RCC_OscConfig+0x4da>
 8000b04:	fa93 f3a3 	rbit	r3, r3
        }
      }
      else
      {
        /* Disable the main PLL. */
        __HAL_RCC_PLL_DISABLE();
 8000b08:	fab3 f383 	clz	r3, r3
 8000b0c:	f103 5384 	add.w	r3, r3, #276824064	@ 0x10800000
 8000b10:	f503 1384 	add.w	r3, r3, #1081344	@ 0x108000
 8000b14:	009b      	lsls	r3, r3, #2
 8000b16:	2200      	movs	r2, #0
 8000b18:	601a      	str	r2, [r3, #0]
 
        /* Get Start Tick */
        tickstart = HAL_GetTick();
 8000b1a:	f7ff fb97 	bl	800024c <HAL_GetTick>
 8000b1e:	f04f 7700 	mov.w	r7, #33554432	@ 0x2000000
 8000b22:	4604      	mov	r4, r0
        
        /* Wait till PLL is disabled */  
        while(__HAL_RCC_GET_FLAG(RCC_FLAG_PLLRDY)  != RESET)
 8000b24:	2601      	movs	r6, #1
 8000b26:	e005      	b.n	8000b34 <HAL_RCC_OscConfig+0x22c>
        {
          if((HAL_GetTick() - tickstart ) > PLL_TIMEOUT_VALUE)
 8000b28:	f7ff fb90 	bl	800024c <HAL_GetTick>
 8000b2c:	1b00      	subs	r0, r0, r4
 8000b2e:	2802      	cmp	r0, #2
 8000b30:	f200 808e 	bhi.w	8000c50 <HAL_RCC_OscConfig+0x348>
 8000b34:	fa97 f3a7 	rbit	r3, r7
        while(__HAL_RCC_GET_FLAG(RCC_FLAG_PLLRDY)  != RESET)
 8000b38:	682a      	ldr	r2, [r5, #0]
 8000b3a:	fa97 f3a7 	rbit	r3, r7
 8000b3e:	fab3 f383 	clz	r3, r3
 8000b42:	fa06 f303 	lsl.w	r3, r6, r3
 8000b46:	4213      	tst	r3, r2
 8000b48:	d1ee      	bne.n	8000b28 <HAL_RCC_OscConfig+0x220>
        }
      }
    }
  }

  return HAL_OK;
 8000b4a:	2000      	movs	r0, #0
}
 8000b4c:	b003      	add	sp, #12
 8000b4e:	e8bd 83f0 	ldmia.w	sp!, {r4, r5, r6, r7, r8, r9, pc}
       || ((__HAL_RCC_GET_SYSCLK_SOURCE() == RCC_SYSCLKSOURCE_STATUS_PLLCLK) && (__HAL_RCC_GET_PLL_OSCSOURCE() == RCC_PLLSOURCE_HSI)))
 8000b52:	6852      	ldr	r2, [r2, #4]
 8000b54:	03d6      	lsls	r6, r2, #15
 8000b56:	f53f af3b 	bmi.w	80009d0 <HAL_RCC_OscConfig+0xc8>
 8000b5a:	2202      	movs	r2, #2
 8000b5c:	fa92 f1a2 	rbit	r1, r2
      if((__HAL_RCC_GET_FLAG(RCC_FLAG_HSIRDY) != RESET) && (RCC_OscInitStruct->HSIState != RCC_HSI_ON))
 8000b60:	491b      	ldr	r1, [pc, #108]	@ (8000bd0 <HAL_RCC_OscConfig+0x2c8>)
 8000b62:	6808      	ldr	r0, [r1, #0]
 8000b64:	fa92 f2a2 	rbit	r2, r2
 8000b68:	2101      	movs	r1, #1
 8000b6a:	fab2 f282 	clz	r2, r2
 8000b6e:	fa01 f202 	lsl.w	r2, r1, r2
 8000b72:	4202      	tst	r2, r0
 8000b74:	d04b      	beq.n	8000c0e <HAL_RCC_OscConfig+0x306>
 8000b76:	6922      	ldr	r2, [r4, #16]
 8000b78:	428a      	cmp	r2, r1
 8000b7a:	d048      	beq.n	8000c0e <HAL_RCC_OscConfig+0x306>
    return HAL_ERROR;
 8000b7c:	2001      	movs	r0, #1
 8000b7e:	e7e5      	b.n	8000b4c <HAL_RCC_OscConfig+0x244>
 8000b80:	2701      	movs	r7, #1
 8000b82:	fa97 f1a7 	rbit	r1, r7
      __HAL_RCC_LSI_DISABLE();
 8000b86:	4b14      	ldr	r3, [pc, #80]	@ (8000bd8 <HAL_RCC_OscConfig+0x2d0>)
      while(__HAL_RCC_GET_FLAG(RCC_FLAG_LSIRDY) != RESET)
 8000b88:	f8df 8044 	ldr.w	r8, [pc, #68]	@ 8000bd0 <HAL_RCC_OscConfig+0x2c8>
      __HAL_RCC_LSI_DISABLE();
 8000b8c:	fab1 f181 	clz	r1, r1
 8000b90:	440b      	add	r3, r1
 8000b92:	009b      	lsls	r3, r3, #2
 8000b94:	2502      	movs	r5, #2
 8000b96:	601a      	str	r2, [r3, #0]
      tickstart = HAL_GetTick();
 8000b98:	f7ff fb58 	bl	800024c <HAL_GetTick>
 8000b9c:	4606      	mov	r6, r0
      while(__HAL_RCC_GET_FLAG(RCC_FLAG_LSIRDY) != RESET)
 8000b9e:	e004      	b.n	8000baa <HAL_RCC_OscConfig+0x2a2>
        if((HAL_GetTick() - tickstart ) > LSI_TIMEOUT_VALUE)
 8000ba0:	f7ff fb54 	bl	800024c <HAL_GetTick>
 8000ba4:	1b80      	subs	r0, r0, r6
 8000ba6:	2802      	cmp	r0, #2
 8000ba8:	d852      	bhi.n	8000c50 <HAL_RCC_OscConfig+0x348>
 8000baa:	fa95 f3a5 	rbit	r3, r5
 8000bae:	fa95 f3a5 	rbit	r3, r5
 8000bb2:	fa95 f3a5 	rbit	r3, r5
      while(__HAL_RCC_GET_FLAG(RCC_FLAG_LSIRDY) != RESET)
 8000bb6:	f8d8 2024 	ldr.w	r2, [r8, #36]	@ 0x24
 8000bba:	fa95 f3a5 	rbit	r3, r5
 8000bbe:	fab3 f383 	clz	r3, r3
 8000bc2:	fa07 f303 	lsl.w	r3, r7, r3
 8000bc6:	4213      	tst	r3, r2
 8000bc8:	d1ea      	bne.n	8000ba0 <HAL_RCC_OscConfig+0x298>
 8000bca:	e78a      	b.n	8000ae2 <HAL_RCC_OscConfig+0x1da>
    FlagStatus       pwrclkchanged = RESET;
 8000bcc:	2500      	movs	r5, #0
 8000bce:	e746      	b.n	8000a5e <HAL_RCC_OscConfig+0x156>
 8000bd0:	40021000 	.word	0x40021000
 8000bd4:	40007000 	.word	0x40007000
 8000bd8:	10908120 	.word	0x10908120
       || ((__HAL_RCC_GET_SYSCLK_SOURCE() == RCC_SYSCLKSOURCE_STATUS_PLLCLK) && (__HAL_RCC_GET_PLL_OSCSOURCE() == RCC_PLLSOURCE_HSE)))
 8000bdc:	684a      	ldr	r2, [r1, #4]
 8000bde:	03d2      	lsls	r2, r2, #15
 8000be0:	f57f aea9 	bpl.w	8000936 <HAL_RCC_OscConfig+0x2e>
 8000be4:	f44f 3200 	mov.w	r2, #131072	@ 0x20000
 8000be8:	fa92 f1a2 	rbit	r1, r2
      if((__HAL_RCC_GET_FLAG(RCC_FLAG_HSERDY) != RESET) && (RCC_OscInitStruct->HSEState == RCC_HSE_OFF))
 8000bec:	49a6      	ldr	r1, [pc, #664]	@ (8000e88 <HAL_RCC_OscConfig+0x580>)
 8000bee:	6808      	ldr	r0, [r1, #0]
 8000bf0:	fa92 f2a2 	rbit	r2, r2
 8000bf4:	2101      	movs	r1, #1
 8000bf6:	fab2 f282 	clz	r2, r2
 8000bfa:	fa01 f202 	lsl.w	r2, r1, r2
 8000bfe:	4202      	tst	r2, r0
 8000c00:	f43f aed8 	beq.w	80009b4 <HAL_RCC_OscConfig+0xac>
 8000c04:	6862      	ldr	r2, [r4, #4]
 8000c06:	2a00      	cmp	r2, #0
 8000c08:	f47f aed4 	bne.w	80009b4 <HAL_RCC_OscConfig+0xac>
 8000c0c:	e7b6      	b.n	8000b7c <HAL_RCC_OscConfig+0x274>
        __HAL_RCC_HSI_CALIBRATIONVALUE_ADJUST(RCC_OscInitStruct->HSICalibrationValue);
 8000c0e:	4d9e      	ldr	r5, [pc, #632]	@ (8000e88 <HAL_RCC_OscConfig+0x580>)
 8000c10:	21f8      	movs	r1, #248	@ 0xf8
 8000c12:	6828      	ldr	r0, [r5, #0]
 8000c14:	fa91 f1a1 	rbit	r1, r1
 8000c18:	6962      	ldr	r2, [r4, #20]
 8000c1a:	fab1 f181 	clz	r1, r1
 8000c1e:	f020 00f8 	bic.w	r0, r0, #248	@ 0xf8
 8000c22:	408a      	lsls	r2, r1
 8000c24:	4302      	orrs	r2, r0
 8000c26:	602a      	str	r2, [r5, #0]
  if(((RCC_OscInitStruct->OscillatorType) & RCC_OSCILLATORTYPE_LSI) == RCC_OSCILLATORTYPE_LSI)
 8000c28:	071d      	lsls	r5, r3, #28
 8000c2a:	f57f af07 	bpl.w	8000a3c <HAL_RCC_OscConfig+0x134>
 8000c2e:	e72f      	b.n	8000a90 <HAL_RCC_OscConfig+0x188>
      SET_BIT(PWR->CR, PWR_CR_DBP);
 8000c30:	6833      	ldr	r3, [r6, #0]
 8000c32:	f443 7380 	orr.w	r3, r3, #256	@ 0x100
 8000c36:	6033      	str	r3, [r6, #0]
      tickstart = HAL_GetTick();
 8000c38:	f7ff fb08 	bl	800024c <HAL_GetTick>
 8000c3c:	4607      	mov	r7, r0
      while(HAL_IS_BIT_CLR(PWR->CR, PWR_CR_DBP))
 8000c3e:	6833      	ldr	r3, [r6, #0]
 8000c40:	05db      	lsls	r3, r3, #23
 8000c42:	f53f af11 	bmi.w	8000a68 <HAL_RCC_OscConfig+0x160>
        if((HAL_GetTick() - tickstart) > RCC_DBP_TIMEOUT_VALUE)
 8000c46:	f7ff fb01 	bl	800024c <HAL_GetTick>
 8000c4a:	1bc0      	subs	r0, r0, r7
 8000c4c:	2864      	cmp	r0, #100	@ 0x64
 8000c4e:	d9f6      	bls.n	8000c3e <HAL_RCC_OscConfig+0x336>
            return HAL_TIMEOUT;
 8000c50:	2003      	movs	r0, #3
}
 8000c52:	b003      	add	sp, #12
 8000c54:	e8bd 83f0 	ldmia.w	sp!, {r4, r5, r6, r7, r8, r9, pc}
      __HAL_RCC_HSE_CONFIG(RCC_OscInitStruct->HSEState);
 8000c58:	4d8b      	ldr	r5, [pc, #556]	@ (8000e88 <HAL_RCC_OscConfig+0x580>)
 8000c5a:	682b      	ldr	r3, [r5, #0]
 8000c5c:	f423 3380 	bic.w	r3, r3, #65536	@ 0x10000
 8000c60:	602b      	str	r3, [r5, #0]
 8000c62:	682b      	ldr	r3, [r5, #0]
 8000c64:	f423 2380 	bic.w	r3, r3, #262144	@ 0x40000
 8000c68:	602b      	str	r3, [r5, #0]
      __HAL_RCC_HSE_PREDIV_CONFIG(RCC_OscInitStruct->HSEPredivValue);
 8000c6a:	6aeb      	ldr	r3, [r5, #44]	@ 0x2c
 8000c6c:	f023 030f 	bic.w	r3, r3, #15
 8000c70:	4313      	orrs	r3, r2
 8000c72:	62eb      	str	r3, [r5, #44]	@ 0x2c
        tickstart = HAL_GetTick();
 8000c74:	f7ff faea 	bl	800024c <HAL_GetTick>
 8000c78:	f44f 3800 	mov.w	r8, #131072	@ 0x20000
 8000c7c:	4606      	mov	r6, r0
        while(__HAL_RCC_GET_FLAG(RCC_FLAG_HSERDY) != RESET)
 8000c7e:	2701      	movs	r7, #1
 8000c80:	e004      	b.n	8000c8c <HAL_RCC_OscConfig+0x384>
           if((HAL_GetTick() - tickstart ) > HSE_TIMEOUT_VALUE)
 8000c82:	f7ff fae3 	bl	800024c <HAL_GetTick>
 8000c86:	1b80      	subs	r0, r0, r6
 8000c88:	2864      	cmp	r0, #100	@ 0x64
 8000c8a:	d8e1      	bhi.n	8000c50 <HAL_RCC_OscConfig+0x348>
 8000c8c:	fa98 f3a8 	rbit	r3, r8
        while(__HAL_RCC_GET_FLAG(RCC_FLAG_HSERDY) != RESET)
 8000c90:	682a      	ldr	r2, [r5, #0]
 8000c92:	fa98 f3a8 	rbit	r3, r8
 8000c96:	fab3 f383 	clz	r3, r3
 8000c9a:	fa07 f303 	lsl.w	r3, r7, r3
 8000c9e:	4213      	tst	r3, r2
 8000ca0:	d1ef      	bne.n	8000c82 <HAL_RCC_OscConfig+0x37a>
 8000ca2:	e686      	b.n	80009b2 <HAL_RCC_OscConfig+0xaa>
    __HAL_RCC_LSE_CONFIG(RCC_OscInitStruct->LSEState);
 8000ca4:	4e78      	ldr	r6, [pc, #480]	@ (8000e88 <HAL_RCC_OscConfig+0x580>)
 8000ca6:	6a33      	ldr	r3, [r6, #32]
 8000ca8:	f023 0301 	bic.w	r3, r3, #1
 8000cac:	6233      	str	r3, [r6, #32]
 8000cae:	6a33      	ldr	r3, [r6, #32]
 8000cb0:	f023 0304 	bic.w	r3, r3, #4
 8000cb4:	6233      	str	r3, [r6, #32]
      tickstart = HAL_GetTick();
 8000cb6:	f7ff fac9 	bl	800024c <HAL_GetTick>
 8000cba:	f04f 0902 	mov.w	r9, #2
 8000cbe:	4607      	mov	r7, r0
      while(__HAL_RCC_GET_FLAG(RCC_FLAG_LSERDY) != RESET)
 8000cc0:	f04f 0801 	mov.w	r8, #1
 8000cc4:	e006      	b.n	8000cd4 <HAL_RCC_OscConfig+0x3cc>
        if((HAL_GetTick() - tickstart ) > RCC_LSE_TIMEOUT_VALUE)
 8000cc6:	f7ff fac1 	bl	800024c <HAL_GetTick>
 8000cca:	f241 3388 	movw	r3, #5000	@ 0x1388
 8000cce:	1bc0      	subs	r0, r0, r7
 8000cd0:	4298      	cmp	r0, r3
 8000cd2:	d8bd      	bhi.n	8000c50 <HAL_RCC_OscConfig+0x348>
 8000cd4:	fa99 f3a9 	rbit	r3, r9
 8000cd8:	fa99 f3a9 	rbit	r3, r9
      while(__HAL_RCC_GET_FLAG(RCC_FLAG_LSERDY) != RESET)
 8000cdc:	6a32      	ldr	r2, [r6, #32]
 8000cde:	fa99 f3a9 	rbit	r3, r9
 8000ce2:	fab3 f383 	clz	r3, r3
 8000ce6:	fa08 f303 	lsl.w	r3, r8, r3
 8000cea:	4213      	tst	r3, r2
 8000cec:	d1eb      	bne.n	8000cc6 <HAL_RCC_OscConfig+0x3be>
    if(pwrclkchanged == SET)
 8000cee:	2d00      	cmp	r5, #0
 8000cf0:	f43f aefa 	beq.w	8000ae8 <HAL_RCC_OscConfig+0x1e0>
      __HAL_RCC_PWR_CLK_DISABLE();
 8000cf4:	4a64      	ldr	r2, [pc, #400]	@ (8000e88 <HAL_RCC_OscConfig+0x580>)
 8000cf6:	69d3      	ldr	r3, [r2, #28]
 8000cf8:	f023 5380 	bic.w	r3, r3, #268435456	@ 0x10000000
 8000cfc:	61d3      	str	r3, [r2, #28]
 8000cfe:	e6f3      	b.n	8000ae8 <HAL_RCC_OscConfig+0x1e0>
 8000d00:	2601      	movs	r6, #1
 8000d02:	fa96 f3a6 	rbit	r3, r6
        __HAL_RCC_HSI_DISABLE();
 8000d06:	fab3 f383 	clz	r3, r3
 8000d0a:	f103 5384 	add.w	r3, r3, #276824064	@ 0x10800000
 8000d0e:	f503 1384 	add.w	r3, r3, #1081344	@ 0x108000
 8000d12:	009b      	lsls	r3, r3, #2
        while(__HAL_RCC_GET_FLAG(RCC_FLAG_HSIRDY) != RESET)
 8000d14:	4f5c      	ldr	r7, [pc, #368]	@ (8000e88 <HAL_RCC_OscConfig+0x580>)
        __HAL_RCC_HSI_DISABLE();
 8000d16:	601a      	str	r2, [r3, #0]
        tickstart = HAL_GetTick();
 8000d18:	f7ff fa98 	bl	800024c <HAL_GetTick>
 8000d1c:	f04f 0802 	mov.w	r8, #2
 8000d20:	4605      	mov	r5, r0
        while(__HAL_RCC_GET_FLAG(RCC_FLAG_HSIRDY) != RESET)
 8000d22:	e004      	b.n	8000d2e <HAL_RCC_OscConfig+0x426>
          if((HAL_GetTick() - tickstart ) > HSI_TIMEOUT_VALUE)
 8000d24:	f7ff fa92 	bl	800024c <HAL_GetTick>
 8000d28:	1b40      	subs	r0, r0, r5
 8000d2a:	2802      	cmp	r0, #2
 8000d2c:	d890      	bhi.n	8000c50 <HAL_RCC_OscConfig+0x348>
 8000d2e:	fa98 f3a8 	rbit	r3, r8
        while(__HAL_RCC_GET_FLAG(RCC_FLAG_HSIRDY) != RESET)
 8000d32:	683a      	ldr	r2, [r7, #0]
 8000d34:	fa98 f3a8 	rbit	r3, r8
 8000d38:	fab3 f383 	clz	r3, r3
 8000d3c:	fa06 f303 	lsl.w	r3, r6, r3
 8000d40:	4213      	tst	r3, r2
 8000d42:	d1ef      	bne.n	8000d24 <HAL_RCC_OscConfig+0x41c>
  if(((RCC_OscInitStruct->OscillatorType) & RCC_OSCILLATORTYPE_LSI) == RCC_OSCILLATORTYPE_LSI)
 8000d44:	6823      	ldr	r3, [r4, #0]
 8000d46:	e677      	b.n	8000a38 <HAL_RCC_OscConfig+0x130>
    __HAL_RCC_LSE_CONFIG(RCC_OscInitStruct->LSEState);
 8000d48:	4a4f      	ldr	r2, [pc, #316]	@ (8000e88 <HAL_RCC_OscConfig+0x580>)
 8000d4a:	6a13      	ldr	r3, [r2, #32]
 8000d4c:	f043 0301 	orr.w	r3, r3, #1
 8000d50:	6213      	str	r3, [r2, #32]
      tickstart = HAL_GetTick();
 8000d52:	f7ff fa7b 	bl	800024c <HAL_GetTick>
      while(__HAL_RCC_GET_FLAG(RCC_FLAG_LSERDY) == RESET)
 8000d56:	f8df 8130 	ldr.w	r8, [pc, #304]	@ 8000e88 <HAL_RCC_OscConfig+0x580>
      tickstart = HAL_GetTick();
 8000d5a:	4606      	mov	r6, r0
 8000d5c:	f04f 0902 	mov.w	r9, #2
      while(__HAL_RCC_GET_FLAG(RCC_FLAG_LSERDY) == RESET)
 8000d60:	2701      	movs	r7, #1
 8000d62:	e007      	b.n	8000d74 <HAL_RCC_OscConfig+0x46c>
        if((HAL_GetTick() - tickstart ) > RCC_LSE_TIMEOUT_VALUE)
 8000d64:	f7ff fa72 	bl	800024c <HAL_GetTick>
 8000d68:	f241 3388 	movw	r3, #5000	@ 0x1388
 8000d6c:	1b80      	subs	r0, r0, r6
 8000d6e:	4298      	cmp	r0, r3
 8000d70:	f63f af6e 	bhi.w	8000c50 <HAL_RCC_OscConfig+0x348>
 8000d74:	fa99 f3a9 	rbit	r3, r9
 8000d78:	fa99 f3a9 	rbit	r3, r9
      while(__HAL_RCC_GET_FLAG(RCC_FLAG_LSERDY) == RESET)
 8000d7c:	f8d8 2020 	ldr.w	r2, [r8, #32]
 8000d80:	fa99 f3a9 	rbit	r3, r9
 8000d84:	fab3 f383 	clz	r3, r3
 8000d88:	fa07 f303 	lsl.w	r3, r7, r3
 8000d8c:	4213      	tst	r3, r2
 8000d8e:	d0e9      	beq.n	8000d64 <HAL_RCC_OscConfig+0x45c>
    if(pwrclkchanged == SET)
 8000d90:	2d00      	cmp	r5, #0
 8000d92:	f43f aea9 	beq.w	8000ae8 <HAL_RCC_OscConfig+0x1e0>
 8000d96:	e7ad      	b.n	8000cf4 <HAL_RCC_OscConfig+0x3ec>
      if((RCC_OscInitStruct->PLL.PLLState) == RCC_PLL_OFF)
 8000d98:	2b01      	cmp	r3, #1
 8000d9a:	f43f aeef 	beq.w	8000b7c <HAL_RCC_OscConfig+0x274>
        pll_config = RCC->CFGR;
 8000d9e:	686b      	ldr	r3, [r5, #4]
        if((READ_BIT(pll_config, RCC_CFGR_PLLSRC)   != RCC_OscInitStruct->PLL.PLLSource) ||      
 8000da0:	6a22      	ldr	r2, [r4, #32]
 8000da2:	f403 3180 	and.w	r1, r3, #65536	@ 0x10000
 8000da6:	4291      	cmp	r1, r2
 8000da8:	f47f aee8 	bne.w	8000b7c <HAL_RCC_OscConfig+0x274>
 8000dac:	6a60      	ldr	r0, [r4, #36]	@ 0x24
           (READ_BIT(pll_config, RCC_CFGR_PLLMUL)   != RCC_OscInitStruct->PLL.PLLMUL))
 8000dae:	f403 1370 	and.w	r3, r3, #3932160	@ 0x3c0000
        if((READ_BIT(pll_config, RCC_CFGR_PLLSRC)   != RCC_OscInitStruct->PLL.PLLSource) ||      
 8000db2:	1a18      	subs	r0, r3, r0
 8000db4:	bf18      	it	ne
 8000db6:	2001      	movne	r0, #1
 8000db8:	e6c8      	b.n	8000b4c <HAL_RCC_OscConfig+0x244>
      __HAL_RCC_HSE_CONFIG(RCC_OscInitStruct->HSEState);
 8000dba:	f103 4380 	add.w	r3, r3, #1073741824	@ 0x40000000
 8000dbe:	f5a3 333c 	sub.w	r3, r3, #192512	@ 0x2f000
 8000dc2:	6819      	ldr	r1, [r3, #0]
 8000dc4:	f441 2180 	orr.w	r1, r1, #262144	@ 0x40000
 8000dc8:	6019      	str	r1, [r3, #0]
 8000dca:	6819      	ldr	r1, [r3, #0]
 8000dcc:	f441 3180 	orr.w	r1, r1, #65536	@ 0x10000
 8000dd0:	e5c5      	b.n	800095e <HAL_RCC_OscConfig+0x56>
    __HAL_RCC_LSE_CONFIG(RCC_OscInitStruct->LSEState);
 8000dd2:	f042 0204 	orr.w	r2, r2, #4
 8000dd6:	621a      	str	r2, [r3, #32]
 8000dd8:	6a1a      	ldr	r2, [r3, #32]
 8000dda:	f042 0201 	orr.w	r2, r2, #1
 8000dde:	621a      	str	r2, [r3, #32]
    if(RCC_OscInitStruct->LSEState != RCC_LSE_OFF)
 8000de0:	e7b7      	b.n	8000d52 <HAL_RCC_OscConfig+0x44a>
 8000de2:	fa93 f3a3 	rbit	r3, r3
        __HAL_RCC_PLL_DISABLE();
 8000de6:	fab3 f383 	clz	r3, r3
 8000dea:	f103 5384 	add.w	r3, r3, #276824064	@ 0x10800000
 8000dee:	f503 1384 	add.w	r3, r3, #1081344	@ 0x108000
 8000df2:	009b      	lsls	r3, r3, #2
 8000df4:	2200      	movs	r2, #0
 8000df6:	601a      	str	r2, [r3, #0]
        tickstart = HAL_GetTick();
 8000df8:	f7ff fa28 	bl	800024c <HAL_GetTick>
 8000dfc:	f04f 7800 	mov.w	r8, #33554432	@ 0x2000000
 8000e00:	4606      	mov	r6, r0
        while(__HAL_RCC_GET_FLAG(RCC_FLAG_PLLRDY)  != RESET)
 8000e02:	2701      	movs	r7, #1
 8000e04:	e005      	b.n	8000e12 <HAL_RCC_OscConfig+0x50a>
          if((HAL_GetTick() - tickstart ) > PLL_TIMEOUT_VALUE)
 8000e06:	f7ff fa21 	bl	800024c <HAL_GetTick>
 8000e0a:	1b80      	subs	r0, r0, r6
 8000e0c:	2802      	cmp	r0, #2
 8000e0e:	f63f af1f 	bhi.w	8000c50 <HAL_RCC_OscConfig+0x348>
 8000e12:	fa98 f3a8 	rbit	r3, r8
        while(__HAL_RCC_GET_FLAG(RCC_FLAG_PLLRDY)  != RESET)
 8000e16:	682a      	ldr	r2, [r5, #0]
 8000e18:	fa98 f3a8 	rbit	r3, r8
 8000e1c:	fab3 f383 	clz	r3, r3
 8000e20:	fa07 f303 	lsl.w	r3, r7, r3
 8000e24:	4213      	tst	r3, r2
 8000e26:	d1ee      	bne.n	8000e06 <HAL_RCC_OscConfig+0x4fe>
      __HAL_RCC_PLL_CONFIG(RCC_OscInitStruct->PLL.PLLSource,
 8000e28:	e9d4 1308 	ldrd	r1, r3, [r4, #32]
 8000e2c:	686a      	ldr	r2, [r5, #4]
 8000e2e:	430b      	orrs	r3, r1
 8000e30:	f422 1274 	bic.w	r2, r2, #3997696	@ 0x3d0000
 8000e34:	4313      	orrs	r3, r2
 8000e36:	606b      	str	r3, [r5, #4]
 8000e38:	f04f 7380 	mov.w	r3, #16777216	@ 0x1000000
 8000e3c:	fa93 f3a3 	rbit	r3, r3
        __HAL_RCC_PLL_ENABLE();
 8000e40:	fab3 f383 	clz	r3, r3
 8000e44:	f103 5384 	add.w	r3, r3, #276824064	@ 0x10800000
 8000e48:	f503 1384 	add.w	r3, r3, #1081344	@ 0x108000
 8000e4c:	009b      	lsls	r3, r3, #2
        while(__HAL_RCC_GET_FLAG(RCC_FLAG_PLLRDY)  == RESET)
 8000e4e:	4e0e      	ldr	r6, [pc, #56]	@ (8000e88 <HAL_RCC_OscConfig+0x580>)
        __HAL_RCC_PLL_ENABLE();
 8000e50:	601f      	str	r7, [r3, #0]
        tickstart = HAL_GetTick();
 8000e52:	f7ff f9fb 	bl	800024c <HAL_GetTick>
 8000e56:	f04f 7700 	mov.w	r7, #33554432	@ 0x2000000
 8000e5a:	4604      	mov	r4, r0
        while(__HAL_RCC_GET_FLAG(RCC_FLAG_PLLRDY)  == RESET)
 8000e5c:	2501      	movs	r5, #1
 8000e5e:	e005      	b.n	8000e6c <HAL_RCC_OscConfig+0x564>
          if((HAL_GetTick() - tickstart ) > PLL_TIMEOUT_VALUE)
 8000e60:	f7ff f9f4 	bl	800024c <HAL_GetTick>
 8000e64:	1b00      	subs	r0, r0, r4
 8000e66:	2802      	cmp	r0, #2
 8000e68:	f63f aef2 	bhi.w	8000c50 <HAL_RCC_OscConfig+0x348>
 8000e6c:	fa97 f3a7 	rbit	r3, r7
        while(__HAL_RCC_GET_FLAG(RCC_FLAG_PLLRDY)  == RESET)
 8000e70:	6832      	ldr	r2, [r6, #0]
 8000e72:	fa97 f3a7 	rbit	r3, r7
 8000e76:	fab3 f383 	clz	r3, r3
 8000e7a:	fa05 f303 	lsl.w	r3, r5, r3
 8000e7e:	4213      	tst	r3, r2
 8000e80:	d0ee      	beq.n	8000e60 <HAL_RCC_OscConfig+0x558>
 8000e82:	e662      	b.n	8000b4a <HAL_RCC_OscConfig+0x242>
    return HAL_ERROR;
 8000e84:	2001      	movs	r0, #1
}
 8000e86:	4770      	bx	lr
 8000e88:	40021000 	.word	0x40021000

08000e8c <HAL_RCC_ClockConfig>:
HAL_StatusTypeDef HAL_RCC_ClockConfig(RCC_ClkInitTypeDef  *RCC_ClkInitStruct, uint32_t FLatency)
{
  uint32_t tickstart = 0U;

  /* Check Null pointer */
  if(RCC_ClkInitStruct == NULL)
 8000e8c:	2800      	cmp	r0, #0
 8000e8e:	f000 80a3 	beq.w	8000fd8 <HAL_RCC_ClockConfig+0x14c>
  /* To correctly read data from FLASH memory, the number of wait states (LATENCY) 
  must be correctly programmed according to the frequency of the CPU clock 
    (HCLK) of the device. */

  /* Increasing the number of wait states because of higher CPU frequency */
  if(FLatency > __HAL_FLASH_GET_LATENCY())
 8000e92:	4a5d      	ldr	r2, [pc, #372]	@ (8001008 <HAL_RCC_ClockConfig+0x17c>)
 8000e94:	6813      	ldr	r3, [r2, #0]
 8000e96:	f003 0307 	and.w	r3, r3, #7
 8000e9a:	428b      	cmp	r3, r1
{
 8000e9c:	e92d 41f0 	stmdb	sp!, {r4, r5, r6, r7, r8, lr}
 8000ea0:	460d      	mov	r5, r1
 8000ea2:	4604      	mov	r4, r0
  if(FLatency > __HAL_FLASH_GET_LATENCY())
 8000ea4:	d20c      	bcs.n	8000ec0 <HAL_RCC_ClockConfig+0x34>
  {    
    /* Program the new number of wait states to the LATENCY bits in the FLASH_ACR register */
    __HAL_FLASH_SET_LATENCY(FLatency);
 8000ea6:	6813      	ldr	r3, [r2, #0]
 8000ea8:	f023 0307 	bic.w	r3, r3, #7
 8000eac:	430b      	orrs	r3, r1
 8000eae:	6013      	str	r3, [r2, #0]
    
    /* Check that the new number of wait states is taken into account to access the Flash
    memory by reading the FLASH_ACR register */
    if(__HAL_FLASH_GET_LATENCY() != FLatency)
 8000eb0:	6813      	ldr	r3, [r2, #0]
 8000eb2:	f003 0307 	and.w	r3, r3, #7
 8000eb6:	428b      	cmp	r3, r1
 8000eb8:	d002      	beq.n	8000ec0 <HAL_RCC_ClockConfig+0x34>
    return HAL_ERROR;
 8000eba:	2001      	movs	r0, #1

  /* Configure the source of time base considering new system clocks settings*/
  HAL_InitTick (uwTickPrio);
  
  return HAL_OK;
}
 8000ebc:	e8bd 81f0 	ldmia.w	sp!, {r4, r5, r6, r7, r8, pc}
  if(((RCC_ClkInitStruct->ClockType) & RCC_CLOCKTYPE_HCLK) == RCC_CLOCKTYPE_HCLK)
 8000ec0:	6823      	ldr	r3, [r4, #0]
 8000ec2:	079f      	lsls	r7, r3, #30
 8000ec4:	d506      	bpl.n	8000ed4 <HAL_RCC_ClockConfig+0x48>
    MODIFY_REG(RCC->CFGR, RCC_CFGR_HPRE, RCC_ClkInitStruct->AHBCLKDivider);
 8000ec6:	4951      	ldr	r1, [pc, #324]	@ (800100c <HAL_RCC_ClockConfig+0x180>)
 8000ec8:	68a0      	ldr	r0, [r4, #8]
 8000eca:	684a      	ldr	r2, [r1, #4]
 8000ecc:	f022 02f0 	bic.w	r2, r2, #240	@ 0xf0
 8000ed0:	4302      	orrs	r2, r0
 8000ed2:	604a      	str	r2, [r1, #4]
  if(((RCC_ClkInitStruct->ClockType) & RCC_CLOCKTYPE_SYSCLK) == RCC_CLOCKTYPE_SYSCLK)
 8000ed4:	07de      	lsls	r6, r3, #31
 8000ed6:	d52c      	bpl.n	8000f32 <HAL_RCC_ClockConfig+0xa6>
    if(RCC_ClkInitStruct->SYSCLKSource == RCC_SYSCLKSOURCE_HSE)
 8000ed8:	6862      	ldr	r2, [r4, #4]
 8000eda:	2a01      	cmp	r2, #1
 8000edc:	d07e      	beq.n	8000fdc <HAL_RCC_ClockConfig+0x150>
    else if(RCC_ClkInitStruct->SYSCLKSource == RCC_SYSCLKSOURCE_PLLCLK)
 8000ede:	2a02      	cmp	r2, #2
 8000ee0:	bf0c      	ite	eq
 8000ee2:	f04f 7300 	moveq.w	r3, #33554432	@ 0x2000000
 8000ee6:	2302      	movne	r3, #2
 8000ee8:	fa93 f1a3 	rbit	r1, r3
      if(__HAL_RCC_GET_FLAG(RCC_FLAG_HSIRDY) == RESET)
 8000eec:	4947      	ldr	r1, [pc, #284]	@ (800100c <HAL_RCC_ClockConfig+0x180>)
 8000eee:	6808      	ldr	r0, [r1, #0]
 8000ef0:	fa93 f3a3 	rbit	r3, r3
 8000ef4:	2101      	movs	r1, #1
 8000ef6:	fab3 f383 	clz	r3, r3
 8000efa:	fa01 f303 	lsl.w	r3, r1, r3
 8000efe:	4203      	tst	r3, r0
 8000f00:	d0db      	beq.n	8000eba <HAL_RCC_ClockConfig+0x2e>
    __HAL_RCC_SYSCLK_CONFIG(RCC_ClkInitStruct->SYSCLKSource);
 8000f02:	4e42      	ldr	r6, [pc, #264]	@ (800100c <HAL_RCC_ClockConfig+0x180>)
 8000f04:	6873      	ldr	r3, [r6, #4]
 8000f06:	f023 0303 	bic.w	r3, r3, #3
 8000f0a:	4313      	orrs	r3, r2
 8000f0c:	6073      	str	r3, [r6, #4]
    tickstart = HAL_GetTick();
 8000f0e:	f7ff f99d 	bl	800024c <HAL_GetTick>
      if ((HAL_GetTick() - tickstart) > CLOCKSWITCH_TIMEOUT_VALUE)
 8000f12:	f241 3888 	movw	r8, #5000	@ 0x1388
    tickstart = HAL_GetTick();
 8000f16:	4607      	mov	r7, r0
    while (__HAL_RCC_GET_SYSCLK_SOURCE() != (RCC_ClkInitStruct->SYSCLKSource << RCC_CFGR_SWS_Pos))
 8000f18:	e004      	b.n	8000f24 <HAL_RCC_ClockConfig+0x98>
      if ((HAL_GetTick() - tickstart) > CLOCKSWITCH_TIMEOUT_VALUE)
 8000f1a:	f7ff f997 	bl	800024c <HAL_GetTick>
 8000f1e:	1bc0      	subs	r0, r0, r7
 8000f20:	4540      	cmp	r0, r8
 8000f22:	d86a      	bhi.n	8000ffa <HAL_RCC_ClockConfig+0x16e>
    while (__HAL_RCC_GET_SYSCLK_SOURCE() != (RCC_ClkInitStruct->SYSCLKSource << RCC_CFGR_SWS_Pos))
 8000f24:	6873      	ldr	r3, [r6, #4]
 8000f26:	6862      	ldr	r2, [r4, #4]
 8000f28:	f003 030c 	and.w	r3, r3, #12
 8000f2c:	ebb3 0f82 	cmp.w	r3, r2, lsl #2
 8000f30:	d1f3      	bne.n	8000f1a <HAL_RCC_ClockConfig+0x8e>
  if(FLatency < __HAL_FLASH_GET_LATENCY())
 8000f32:	4a35      	ldr	r2, [pc, #212]	@ (8001008 <HAL_RCC_ClockConfig+0x17c>)
 8000f34:	6813      	ldr	r3, [r2, #0]
 8000f36:	f003 0307 	and.w	r3, r3, #7
 8000f3a:	42ab      	cmp	r3, r5
 8000f3c:	d909      	bls.n	8000f52 <HAL_RCC_ClockConfig+0xc6>
    __HAL_FLASH_SET_LATENCY(FLatency);
 8000f3e:	6813      	ldr	r3, [r2, #0]
 8000f40:	f023 0307 	bic.w	r3, r3, #7
 8000f44:	432b      	orrs	r3, r5
 8000f46:	6013      	str	r3, [r2, #0]
    if(__HAL_FLASH_GET_LATENCY() != FLatency)
 8000f48:	6813      	ldr	r3, [r2, #0]
 8000f4a:	f003 0307 	and.w	r3, r3, #7
 8000f4e:	42ab      	cmp	r3, r5
 8000f50:	d1b3      	bne.n	8000eba <HAL_RCC_ClockConfig+0x2e>
  if(((RCC_ClkInitStruct->ClockType) & RCC_CLOCKTYPE_PCLK1) == RCC_CLOCKTYPE_PCLK1)
 8000f52:	6823      	ldr	r3, [r4, #0]
 8000f54:	0758      	lsls	r0, r3, #29
 8000f56:	d506      	bpl.n	8000f66 <HAL_RCC_ClockConfig+0xda>
    MODIFY_REG(RCC->CFGR, RCC_CFGR_PPRE1, RCC_ClkInitStruct->APB1CLKDivider);
 8000f58:	492c      	ldr	r1, [pc, #176]	@ (800100c <HAL_RCC_ClockConfig+0x180>)
 8000f5a:	68e0      	ldr	r0, [r4, #12]
 8000f5c:	684a      	ldr	r2, [r1, #4]
 8000f5e:	f422 62e0 	bic.w	r2, r2, #1792	@ 0x700
 8000f62:	4302      	orrs	r2, r0
 8000f64:	604a      	str	r2, [r1, #4]
  if(((RCC_ClkInitStruct->ClockType) & RCC_CLOCKTYPE_PCLK2) == RCC_CLOCKTYPE_PCLK2)
 8000f66:	0719      	lsls	r1, r3, #28
 8000f68:	d507      	bpl.n	8000f7a <HAL_RCC_ClockConfig+0xee>
    MODIFY_REG(RCC->CFGR, RCC_CFGR_PPRE2, ((RCC_ClkInitStruct->APB2CLKDivider) << 3U));
 8000f6a:	4a28      	ldr	r2, [pc, #160]	@ (800100c <HAL_RCC_ClockConfig+0x180>)
 8000f6c:	6921      	ldr	r1, [r4, #16]
 8000f6e:	6853      	ldr	r3, [r2, #4]
 8000f70:	f423 5360 	bic.w	r3, r3, #14336	@ 0x3800
 8000f74:	ea43 03c1 	orr.w	r3, r3, r1, lsl #3
 8000f78:	6053      	str	r3, [r2, #4]
uint32_t HAL_RCC_GetSysClockFreq(void)
{
  uint32_t tmpreg = 0U, prediv = 0U, pllclk = 0U, pllmul = 0U;
  uint32_t sysclockfreq = 0U;
  
  tmpreg = RCC->CFGR;
 8000f7a:	4b24      	ldr	r3, [pc, #144]	@ (800100c <HAL_RCC_ClockConfig+0x180>)
 8000f7c:	685a      	ldr	r2, [r3, #4]
  
  /* Get SYSCLK source -------------------------------------------------------*/
  switch (tmpreg & RCC_CFGR_SWS)
 8000f7e:	f002 010c 	and.w	r1, r2, #12
 8000f82:	2908      	cmp	r1, #8
 8000f84:	d017      	beq.n	8000fb6 <HAL_RCC_ClockConfig+0x12a>
  {
    case RCC_SYSCLKSOURCE_STATUS_HSE:  /* HSE used as system clock */
    {
      sysclockfreq = HSE_VALUE;
 8000f86:	4922      	ldr	r1, [pc, #136]	@ (8001010 <HAL_RCC_ClockConfig+0x184>)
  SystemCoreClock = HAL_RCC_GetSysClockFreq() >> AHBPrescTable[(RCC->CFGR & RCC_CFGR_HPRE)>> RCC_CFGR_HPRE_BITNUMBER];
 8000f88:	4b20      	ldr	r3, [pc, #128]	@ (800100c <HAL_RCC_ClockConfig+0x180>)
 8000f8a:	22f0      	movs	r2, #240	@ 0xf0
 8000f8c:	685b      	ldr	r3, [r3, #4]
 8000f8e:	fa92 f2a2 	rbit	r2, r2
 8000f92:	fab2 f282 	clz	r2, r2
 8000f96:	f003 03f0 	and.w	r3, r3, #240	@ 0xf0
 8000f9a:	4c1e      	ldr	r4, [pc, #120]	@ (8001014 <HAL_RCC_ClockConfig+0x188>)
  HAL_InitTick (uwTickPrio);
 8000f9c:	481e      	ldr	r0, [pc, #120]	@ (8001018 <HAL_RCC_ClockConfig+0x18c>)
  SystemCoreClock = HAL_RCC_GetSysClockFreq() >> AHBPrescTable[(RCC->CFGR & RCC_CFGR_HPRE)>> RCC_CFGR_HPRE_BITNUMBER];
 8000f9e:	40d3      	lsrs	r3, r2
 8000fa0:	4a1e      	ldr	r2, [pc, #120]	@ (800101c <HAL_RCC_ClockConfig+0x190>)
 8000fa2:	5ce3      	ldrb	r3, [r4, r3]
  HAL_InitTick (uwTickPrio);
 8000fa4:	6800      	ldr	r0, [r0, #0]
  SystemCoreClock = HAL_RCC_GetSysClockFreq() >> AHBPrescTable[(RCC->CFGR & RCC_CFGR_HPRE)>> RCC_CFGR_HPRE_BITNUMBER];
 8000fa6:	fa21 f303 	lsr.w	r3, r1, r3
 8000faa:	6013      	str	r3, [r2, #0]
  HAL_InitTick (uwTickPrio);
 8000fac:	f7ff f90c 	bl	80001c8 <HAL_InitTick>
  return HAL_OK;
 8000fb0:	2000      	movs	r0, #0
}
 8000fb2:	e8bd 81f0 	ldmia.w	sp!, {r4, r5, r6, r7, r8, pc}
      break;
    }
    case RCC_SYSCLKSOURCE_STATUS_PLLCLK:  /* PLL used as system clock */
    {
      pllmul = aPLLMULFactorTable[(uint32_t)(tmpreg & RCC_CFGR_PLLMUL) >> RCC_CFGR_PLLMUL_Pos];
 8000fb6:	f3c2 4083 	ubfx	r0, r2, #18, #4
 8000fba:	4c19      	ldr	r4, [pc, #100]	@ (8001020 <HAL_RCC_ClockConfig+0x194>)
      prediv = aPredivFactorTable[(uint32_t)(RCC->CFGR2 & RCC_CFGR2_PREDIV) >> RCC_CFGR2_PREDIV_Pos];
 8000fbc:	6ad9      	ldr	r1, [r3, #44]	@ 0x2c
      pllmul = aPLLMULFactorTable[(uint32_t)(tmpreg & RCC_CFGR_PLLMUL) >> RCC_CFGR_PLLMUL_Pos];
 8000fbe:	5c23      	ldrb	r3, [r4, r0]
#if defined(RCC_CFGR_PLLSRC_HSI_DIV2)
      if ((tmpreg & RCC_CFGR_PLLSRC) != RCC_PLLSOURCE_HSI)
 8000fc0:	03d2      	lsls	r2, r2, #15
 8000fc2:	d51c      	bpl.n	8000ffe <HAL_RCC_ClockConfig+0x172>
      prediv = aPredivFactorTable[(uint32_t)(RCC->CFGR2 & RCC_CFGR2_PREDIV) >> RCC_CFGR2_PREDIV_Pos];
 8000fc4:	4817      	ldr	r0, [pc, #92]	@ (8001024 <HAL_RCC_ClockConfig+0x198>)
      {
        /* HSE used as PLL clock source : PLLCLK = HSE/PREDIV * PLLMUL */
        pllclk = (uint32_t)((uint64_t) HSE_VALUE / (uint64_t) (prediv)) * ((uint64_t) pllmul);
 8000fc6:	4a12      	ldr	r2, [pc, #72]	@ (8001010 <HAL_RCC_ClockConfig+0x184>)
      prediv = aPredivFactorTable[(uint32_t)(RCC->CFGR2 & RCC_CFGR2_PREDIV) >> RCC_CFGR2_PREDIV_Pos];
 8000fc8:	f001 010f 	and.w	r1, r1, #15
 8000fcc:	5c41      	ldrb	r1, [r0, r1]
        pllclk = (uint32_t)((uint64_t) HSE_VALUE / (uint64_t) (prediv)) * ((uint64_t) pllmul);
 8000fce:	fbb2 f2f1 	udiv	r2, r2, r1
 8000fd2:	fb03 f102 	mul.w	r1, r3, r2
 8000fd6:	e7d7      	b.n	8000f88 <HAL_RCC_ClockConfig+0xfc>
    return HAL_ERROR;
 8000fd8:	2001      	movs	r0, #1
}
 8000fda:	4770      	bx	lr
 8000fdc:	f44f 3300 	mov.w	r3, #131072	@ 0x20000
 8000fe0:	fa93 f1a3 	rbit	r1, r3
      if(__HAL_RCC_GET_FLAG(RCC_FLAG_HSERDY) == RESET)
 8000fe4:	4909      	ldr	r1, [pc, #36]	@ (800100c <HAL_RCC_ClockConfig+0x180>)
 8000fe6:	6809      	ldr	r1, [r1, #0]
 8000fe8:	fa93 f3a3 	rbit	r3, r3
 8000fec:	fab3 f383 	clz	r3, r3
 8000ff0:	fa02 f303 	lsl.w	r3, r2, r3
 8000ff4:	420b      	tst	r3, r1
 8000ff6:	d184      	bne.n	8000f02 <HAL_RCC_ClockConfig+0x76>
 8000ff8:	e75f      	b.n	8000eba <HAL_RCC_ClockConfig+0x2e>
        return HAL_TIMEOUT;
 8000ffa:	2003      	movs	r0, #3
 8000ffc:	e75e      	b.n	8000ebc <HAL_RCC_ClockConfig+0x30>
      }
      else
      {
        /* HSI used as PLL clock source : PLLCLK = HSI/2 * PLLMUL */
        pllclk = (uint32_t)((uint64_t) (HSI_VALUE >> 1U) * ((uint64_t) pllmul));
 8000ffe:	490a      	ldr	r1, [pc, #40]	@ (8001028 <HAL_RCC_ClockConfig+0x19c>)
 8001000:	fb03 f101 	mul.w	r1, r3, r1
 8001004:	e7c0      	b.n	8000f88 <HAL_RCC_ClockConfig+0xfc>
 8001006:	bf00      	nop
 8001008:	40022000 	.word	0x40022000
 800100c:	40021000 	.word	0x40021000
 8001010:	007a1200 	.word	0x007a1200
 8001014:	08003b4c 	.word	0x08003b4c
 8001018:	20000004 	.word	0x20000004
 800101c:	2000000c 	.word	0x2000000c
 8001020:	08003b34 	.word	0x08003b34
 8001024:	08003b24 	.word	0x08003b24
 8001028:	003d0900 	.word	0x003d0900

0800102c <HAL_RCC_GetSysClockFreq>:
  tmpreg = RCC->CFGR;
 800102c:	4a0e      	ldr	r2, [pc, #56]	@ (8001068 <HAL_RCC_GetSysClockFreq+0x3c>)
 800102e:	6853      	ldr	r3, [r2, #4]
  switch (tmpreg & RCC_CFGR_SWS)
 8001030:	f003 010c 	and.w	r1, r3, #12
 8001034:	2908      	cmp	r1, #8
 8001036:	d001      	beq.n	800103c <HAL_RCC_GetSysClockFreq+0x10>
      sysclockfreq = HSE_VALUE;
 8001038:	480c      	ldr	r0, [pc, #48]	@ (800106c <HAL_RCC_GetSysClockFreq+0x40>)
      sysclockfreq = HSI_VALUE;
      break;
    }
  }
  return sysclockfreq;
}
 800103a:	4770      	bx	lr
      pllmul = aPLLMULFactorTable[(uint32_t)(tmpreg & RCC_CFGR_PLLMUL) >> RCC_CFGR_PLLMUL_Pos];
 800103c:	f3c3 4183 	ubfx	r1, r3, #18, #4
 8001040:	480b      	ldr	r0, [pc, #44]	@ (8001070 <HAL_RCC_GetSysClockFreq+0x44>)
      prediv = aPredivFactorTable[(uint32_t)(RCC->CFGR2 & RCC_CFGR2_PREDIV) >> RCC_CFGR2_PREDIV_Pos];
 8001042:	6ad2      	ldr	r2, [r2, #44]	@ 0x2c
      pllmul = aPLLMULFactorTable[(uint32_t)(tmpreg & RCC_CFGR_PLLMUL) >> RCC_CFGR_PLLMUL_Pos];
 8001044:	5c40      	ldrb	r0, [r0, r1]
      if ((tmpreg & RCC_CFGR_PLLSRC) != RCC_PLLSOURCE_HSI)
 8001046:	03db      	lsls	r3, r3, #15
 8001048:	d509      	bpl.n	800105e <HAL_RCC_GetSysClockFreq+0x32>
      prediv = aPredivFactorTable[(uint32_t)(RCC->CFGR2 & RCC_CFGR2_PREDIV) >> RCC_CFGR2_PREDIV_Pos];
 800104a:	490a      	ldr	r1, [pc, #40]	@ (8001074 <HAL_RCC_GetSysClockFreq+0x48>)
        pllclk = (uint32_t)((uint64_t) HSE_VALUE / (uint64_t) (prediv)) * ((uint64_t) pllmul);
 800104c:	4b07      	ldr	r3, [pc, #28]	@ (800106c <HAL_RCC_GetSysClockFreq+0x40>)
      prediv = aPredivFactorTable[(uint32_t)(RCC->CFGR2 & RCC_CFGR2_PREDIV) >> RCC_CFGR2_PREDIV_Pos];
 800104e:	f002 020f 	and.w	r2, r2, #15
 8001052:	5c8a      	ldrb	r2, [r1, r2]
        pllclk = (uint32_t)((uint64_t) HSE_VALUE / (uint64_t) (prediv)) * ((uint64_t) pllmul);
 8001054:	fbb3 f3f2 	udiv	r3, r3, r2
 8001058:	fb03 f000 	mul.w	r0, r3, r0
 800105c:	4770      	bx	lr
        pllclk = (uint32_t)((uint64_t) (HSI_VALUE >> 1U) * ((uint64_t) pllmul));
 800105e:	4b06      	ldr	r3, [pc, #24]	@ (8001078 <HAL_RCC_GetSysClockFreq+0x4c>)
 8001060:	fb03 f000 	mul.w	r0, r3, r0
 8001064:	4770      	bx	lr
 8001066:	bf00      	nop
 8001068:	40021000 	.word	0x40021000
 800106c:	007a1200 	.word	0x007a1200
 8001070:	08003b34 	.word	0x08003b34
 8001074:	08003b24 	.word	0x08003b24
 8001078:	003d0900 	.word	0x003d0900

0800107c <HAL_RCC_GetPCLK1Freq>:
  * @retval PCLK1 frequency
  */
uint32_t HAL_RCC_GetPCLK1Freq(void)
{
  /* Get HCLK source and Compute PCLK1 frequency ---------------------------*/
  return (HAL_RCC_GetHCLKFreq() >> APBPrescTable[(RCC->CFGR & RCC_CFGR_PPRE1) >> RCC_CFGR_PPRE1_BITNUMBER]);
 800107c:	4b08      	ldr	r3, [pc, #32]	@ (80010a0 <HAL_RCC_GetPCLK1Freq+0x24>)
 800107e:	f44f 62e0 	mov.w	r2, #1792	@ 0x700
 8001082:	685b      	ldr	r3, [r3, #4]
 8001084:	fa92 f2a2 	rbit	r2, r2
 8001088:	fab2 f282 	clz	r2, r2
 800108c:	f403 63e0 	and.w	r3, r3, #1792	@ 0x700
 8001090:	4904      	ldr	r1, [pc, #16]	@ (80010a4 <HAL_RCC_GetPCLK1Freq+0x28>)
  return SystemCoreClock;
 8001092:	4805      	ldr	r0, [pc, #20]	@ (80010a8 <HAL_RCC_GetPCLK1Freq+0x2c>)
  return (HAL_RCC_GetHCLKFreq() >> APBPrescTable[(RCC->CFGR & RCC_CFGR_PPRE1) >> RCC_CFGR_PPRE1_BITNUMBER]);
 8001094:	40d3      	lsrs	r3, r2
 8001096:	6800      	ldr	r0, [r0, #0]
 8001098:	5ccb      	ldrb	r3, [r1, r3]
}    
 800109a:	40d8      	lsrs	r0, r3
 800109c:	4770      	bx	lr
 800109e:	bf00      	nop
 80010a0:	40021000 	.word	0x40021000
 80010a4:	08003b44 	.word	0x08003b44
 80010a8:	2000000c 	.word	0x2000000c

080010ac <HAL_RCC_GetPCLK2Freq>:
  * @retval PCLK2 frequency
  */
uint32_t HAL_RCC_GetPCLK2Freq(void)
{
  /* Get HCLK source and Compute PCLK2 frequency ---------------------------*/
  return (HAL_RCC_GetHCLKFreq()>> APBPrescTable[(RCC->CFGR & RCC_CFGR_PPRE2) >> RCC_CFGR_PPRE2_BITNUMBER]);
 80010ac:	4b08      	ldr	r3, [pc, #32]	@ (80010d0 <HAL_RCC_GetPCLK2Freq+0x24>)
 80010ae:	f44f 5260 	mov.w	r2, #14336	@ 0x3800
 80010b2:	685b      	ldr	r3, [r3, #4]
 80010b4:	fa92 f2a2 	rbit	r2, r2
 80010b8:	fab2 f282 	clz	r2, r2
 80010bc:	f403 5360 	and.w	r3, r3, #14336	@ 0x3800
 80010c0:	4904      	ldr	r1, [pc, #16]	@ (80010d4 <HAL_RCC_GetPCLK2Freq+0x28>)
  return SystemCoreClock;
 80010c2:	4805      	ldr	r0, [pc, #20]	@ (80010d8 <HAL_RCC_GetPCLK2Freq+0x2c>)
  return (HAL_RCC_GetHCLKFreq()>> APBPrescTable[(RCC->CFGR & RCC_CFGR_PPRE2) >> RCC_CFGR_PPRE2_BITNUMBER]);
 80010c4:	40d3      	lsrs	r3, r2
 80010c6:	6800      	ldr	r0, [r0, #0]
 80010c8:	5ccb      	ldrb	r3, [r1, r3]
} 
 80010ca:	40d8      	lsrs	r0, r3
 80010cc:	4770      	bx	lr
 80010ce:	bf00      	nop
 80010d0:	40021000 	.word	0x40021000
 80010d4:	08003b44 	.word	0x08003b44
 80010d8:	2000000c 	.word	0x2000000c

080010dc <HAL_RCCEx_PeriphCLKConfig>:
  *         When the TIMx clock source is PLL clock, so the TIMx clock is PLL clock x 2.
  *
  * @retval HAL status
  */
HAL_StatusTypeDef HAL_RCCEx_PeriphCLKConfig(RCC_PeriphCLKInitTypeDef  *PeriphClkInit)
{
 80010dc:	e92d 43f0 	stmdb	sp!, {r4, r5, r6, r7, r8, r9, lr}
    
  /* Check the parameters */
  assert_param(IS_RCC_PERIPHCLOCK(PeriphClkInit->PeriphClockSelection));
  
  /*---------------------------- RTC configuration -------------------------------*/
  if(((PeriphClkInit->PeriphClockSelection) & RCC_PERIPHCLK_RTC) == (RCC_PERIPHCLK_RTC))
 80010e0:	6803      	ldr	r3, [r0, #0]
 80010e2:	03dd      	lsls	r5, r3, #15
{
 80010e4:	b083      	sub	sp, #12
 80010e6:	4604      	mov	r4, r0
  if(((PeriphClkInit->PeriphClockSelection) & RCC_PERIPHCLK_RTC) == (RCC_PERIPHCLK_RTC))
 80010e8:	d540      	bpl.n	800116c <HAL_RCCEx_PeriphCLKConfig+0x90>


    /* As soon as function is called to change RTC clock source, activation of the 
       power domain is done. */
    /* Requires to enable write access to Backup Domain of necessary */
    if(__HAL_RCC_PWR_IS_CLK_DISABLED())
 80010ea:	4b7d      	ldr	r3, [pc, #500]	@ (80012e0 <HAL_RCCEx_PeriphCLKConfig+0x204>)
 80010ec:	69da      	ldr	r2, [r3, #28]
 80010ee:	00d0      	lsls	r0, r2, #3
 80010f0:	f140 80b6 	bpl.w	8001260 <HAL_RCCEx_PeriphCLKConfig+0x184>
    {
      __HAL_RCC_PWR_CLK_ENABLE();
      pwrclkchanged = SET;
    }
    
    if(HAL_IS_BIT_CLR(PWR->CR, PWR_CR_DBP))
 80010f4:	4d7b      	ldr	r5, [pc, #492]	@ (80012e4 <HAL_RCCEx_PeriphCLKConfig+0x208>)
 80010f6:	682b      	ldr	r3, [r5, #0]
 80010f8:	05d9      	lsls	r1, r3, #23
  FlagStatus       pwrclkchanged = RESET;
 80010fa:	f04f 0600 	mov.w	r6, #0
    if(HAL_IS_BIT_CLR(PWR->CR, PWR_CR_DBP))
 80010fe:	f140 80bf 	bpl.w	8001280 <HAL_RCCEx_PeriphCLKConfig+0x1a4>
        }
      }
    }
    
    /* Reset the Backup domain only if the RTC Clock source selection is modified from reset value */ 
    temp_reg = (RCC->BDCR & RCC_BDCR_RTCSEL);
 8001102:	f8df 81dc 	ldr.w	r8, [pc, #476]	@ 80012e0 <HAL_RCCEx_PeriphCLKConfig+0x204>
    if((temp_reg != 0x00000000U) && (temp_reg != (PeriphClkInit->RTCClockSelection & RCC_BDCR_RTCSEL)))
 8001106:	6861      	ldr	r1, [r4, #4]
    temp_reg = (RCC->BDCR & RCC_BDCR_RTCSEL);
 8001108:	f8d8 3020 	ldr.w	r3, [r8, #32]
    if((temp_reg != 0x00000000U) && (temp_reg != (PeriphClkInit->RTCClockSelection & RCC_BDCR_RTCSEL)))
 800110c:	f413 7340 	ands.w	r3, r3, #768	@ 0x300
 8001110:	d020      	beq.n	8001154 <HAL_RCCEx_PeriphCLKConfig+0x78>
 8001112:	f401 7240 	and.w	r2, r1, #768	@ 0x300
 8001116:	429a      	cmp	r2, r3
 8001118:	d01c      	beq.n	8001154 <HAL_RCCEx_PeriphCLKConfig+0x78>
    {
      /* Store the content of BDCR register before the reset of Backup Domain */
      temp_reg = (RCC->BDCR & ~(RCC_BDCR_RTCSEL));
 800111a:	f8d8 1020 	ldr.w	r1, [r8, #32]
 800111e:	f44f 3380 	mov.w	r3, #65536	@ 0x10000
 8001122:	f421 7040 	bic.w	r0, r1, #768	@ 0x300
 8001126:	fa93 f2a3 	rbit	r2, r3
      /* RTC Clock selection can be changed only if the Backup Domain is reset */
      __HAL_RCC_BACKUPRESET_FORCE();
 800112a:	4f6f      	ldr	r7, [pc, #444]	@ (80012e8 <HAL_RCCEx_PeriphCLKConfig+0x20c>)
 800112c:	fab2 f282 	clz	r2, r2
 8001130:	443a      	add	r2, r7
 8001132:	0092      	lsls	r2, r2, #2
 8001134:	2501      	movs	r5, #1
 8001136:	6015      	str	r5, [r2, #0]
 8001138:	fa93 f3a3 	rbit	r3, r3
      __HAL_RCC_BACKUPRESET_RELEASE();
 800113c:	fab3 f383 	clz	r3, r3
 8001140:	443b      	add	r3, r7
 8001142:	009b      	lsls	r3, r3, #2
 8001144:	2200      	movs	r2, #0
 8001146:	601a      	str	r2, [r3, #0]
      /* Restore the Content of BDCR register */
      RCC->BDCR = temp_reg;
    
      /* Wait for LSERDY if LSE was enabled */
      if (HAL_IS_BIT_SET(temp_reg, RCC_BDCR_LSEON))
 8001148:	07cb      	lsls	r3, r1, #31
      RCC->BDCR = temp_reg;
 800114a:	f8c8 0020 	str.w	r0, [r8, #32]
      if (HAL_IS_BIT_SET(temp_reg, RCC_BDCR_LSEON))
 800114e:	f100 80ab 	bmi.w	80012a8 <HAL_RCCEx_PeriphCLKConfig+0x1cc>
            return HAL_TIMEOUT;
          }      
        }  
      }
    }
    __HAL_RCC_RTC_CONFIG(PeriphClkInit->RTCClockSelection); 
 8001152:	6861      	ldr	r1, [r4, #4]
 8001154:	4a62      	ldr	r2, [pc, #392]	@ (80012e0 <HAL_RCCEx_PeriphCLKConfig+0x204>)
 8001156:	6a13      	ldr	r3, [r2, #32]
 8001158:	f423 7340 	bic.w	r3, r3, #768	@ 0x300
 800115c:	430b      	orrs	r3, r1
 800115e:	6213      	str	r3, [r2, #32]

    /* Require to disable power clock if necessary */
    if(pwrclkchanged == SET)
 8001160:	b11e      	cbz	r6, 800116a <HAL_RCCEx_PeriphCLKConfig+0x8e>
    {
      __HAL_RCC_PWR_CLK_DISABLE();
 8001162:	69d3      	ldr	r3, [r2, #28]
 8001164:	f023 5380 	bic.w	r3, r3, #268435456	@ 0x10000000
 8001168:	61d3      	str	r3, [r2, #28]
    }
  }

  /*------------------------------- USART1 Configuration ------------------------*/
  if(((PeriphClkInit->PeriphClockSelection) & RCC_PERIPHCLK_USART1) == RCC_PERIPHCLK_USART1)
 800116a:	6823      	ldr	r3, [r4, #0]
 800116c:	07df      	lsls	r7, r3, #31
 800116e:	d506      	bpl.n	800117e <HAL_RCCEx_PeriphCLKConfig+0xa2>
  {
    /* Check the parameters */
    assert_param(IS_RCC_USART1CLKSOURCE(PeriphClkInit->Usart1ClockSelection));
    
    /* Configure the USART1 clock source */
    __HAL_RCC_USART1_CONFIG(PeriphClkInit->Usart1ClockSelection);
 8001170:	495b      	ldr	r1, [pc, #364]	@ (80012e0 <HAL_RCCEx_PeriphCLKConfig+0x204>)
 8001172:	68a0      	ldr	r0, [r4, #8]
 8001174:	6b0a      	ldr	r2, [r1, #48]	@ 0x30
 8001176:	f022 0203 	bic.w	r2, r2, #3
 800117a:	4302      	orrs	r2, r0
 800117c:	630a      	str	r2, [r1, #48]	@ 0x30
  }

#if defined(RCC_CFGR3_USART2SW)
  /*----------------------------- USART2 Configuration --------------------------*/ 
  if(((PeriphClkInit->PeriphClockSelection) & RCC_PERIPHCLK_USART2) == RCC_PERIPHCLK_USART2)
 800117e:	079e      	lsls	r6, r3, #30
 8001180:	d506      	bpl.n	8001190 <HAL_RCCEx_PeriphCLKConfig+0xb4>
  {
    /* Check the parameters */
    assert_param(IS_RCC_USART2CLKSOURCE(PeriphClkInit->Usart2ClockSelection));
    
    /* Configure the USART2 clock source */
    __HAL_RCC_USART2_CONFIG(PeriphClkInit->Usart2ClockSelection);
 8001182:	4957      	ldr	r1, [pc, #348]	@ (80012e0 <HAL_RCCEx_PeriphCLKConfig+0x204>)
 8001184:	68e0      	ldr	r0, [r4, #12]
 8001186:	6b0a      	ldr	r2, [r1, #48]	@ 0x30
 8001188:	f422 3240 	bic.w	r2, r2, #196608	@ 0x30000
 800118c:	4302      	orrs	r2, r0
 800118e:	630a      	str	r2, [r1, #48]	@ 0x30
  }
#endif /* RCC_CFGR3_USART2SW */

#if defined(RCC_CFGR3_USART3SW)
  /*------------------------------ USART3 Configuration ------------------------*/ 
  if(((PeriphClkInit->PeriphClockSelection) & RCC_PERIPHCLK_USART3) == RCC_PERIPHCLK_USART3)
 8001190:	075d      	lsls	r5, r3, #29
 8001192:	d506      	bpl.n	80011a2 <HAL_RCCEx_PeriphCLKConfig+0xc6>
  {
    /* Check the parameters */
    assert_param(IS_RCC_USART3CLKSOURCE(PeriphClkInit->Usart3ClockSelection));
    
    /* Configure the USART3 clock source */
    __HAL_RCC_USART3_CONFIG(PeriphClkInit->Usart3ClockSelection);
 8001194:	4952      	ldr	r1, [pc, #328]	@ (80012e0 <HAL_RCCEx_PeriphCLKConfig+0x204>)
 8001196:	6920      	ldr	r0, [r4, #16]
 8001198:	6b0a      	ldr	r2, [r1, #48]	@ 0x30
 800119a:	f422 2240 	bic.w	r2, r2, #786432	@ 0xc0000
 800119e:	4302      	orrs	r2, r0
 80011a0:	630a      	str	r2, [r1, #48]	@ 0x30
  }
#endif /* RCC_CFGR3_USART3SW */

  /*------------------------------ I2C1 Configuration ------------------------*/ 
  if(((PeriphClkInit->PeriphClockSelection) & RCC_PERIPHCLK_I2C1) == RCC_PERIPHCLK_I2C1)
 80011a2:	0698      	lsls	r0, r3, #26
 80011a4:	d506      	bpl.n	80011b4 <HAL_RCCEx_PeriphCLKConfig+0xd8>
  {
    /* Check the parameters */
    assert_param(IS_RCC_I2C1CLKSOURCE(PeriphClkInit->I2c1ClockSelection));
    
    /* Configure the I2C1 clock source */
    __HAL_RCC_I2C1_CONFIG(PeriphClkInit->I2c1ClockSelection);
 80011a6:	494e      	ldr	r1, [pc, #312]	@ (80012e0 <HAL_RCCEx_PeriphCLKConfig+0x204>)
 80011a8:	69e0      	ldr	r0, [r4, #28]
 80011aa:	6b0a      	ldr	r2, [r1, #48]	@ 0x30
 80011ac:	f022 0210 	bic.w	r2, r2, #16
 80011b0:	4302      	orrs	r2, r0
 80011b2:	630a      	str	r2, [r1, #48]	@ 0x30
#if defined(STM32F302xE) || defined(STM32F303xE)\
 || defined(STM32F302xC) || defined(STM32F303xC)\
 || defined(STM32F302x8)                        \
 || defined(STM32F373xC)
  /*------------------------------ USB Configuration ------------------------*/ 
  if(((PeriphClkInit->PeriphClockSelection) & RCC_PERIPHCLK_USB) == RCC_PERIPHCLK_USB)
 80011b4:	0399      	lsls	r1, r3, #14
 80011b6:	d506      	bpl.n	80011c6 <HAL_RCCEx_PeriphCLKConfig+0xea>
  {
    /* Check the parameters */
    assert_param(IS_RCC_USBCLKSOURCE(PeriphClkInit->USBClockSelection));
    
    /* Configure the USB clock source */
    __HAL_RCC_USB_CONFIG(PeriphClkInit->USBClockSelection);
 80011b8:	4949      	ldr	r1, [pc, #292]	@ (80012e0 <HAL_RCCEx_PeriphCLKConfig+0x204>)
 80011ba:	6ba0      	ldr	r0, [r4, #56]	@ 0x38
 80011bc:	684a      	ldr	r2, [r1, #4]
 80011be:	f422 0280 	bic.w	r2, r2, #4194304	@ 0x400000
 80011c2:	4302      	orrs	r2, r0
 80011c4:	604a      	str	r2, [r1, #4]
 || defined(STM32F302xC) || defined(STM32F303xC) || defined(STM32F358xx)\
 || defined(STM32F301x8) || defined(STM32F302x8) || defined(STM32F318xx)\
 || defined(STM32F373xC) || defined(STM32F378xx)

  /*------------------------------ I2C2 Configuration ------------------------*/ 
  if(((PeriphClkInit->PeriphClockSelection) & RCC_PERIPHCLK_I2C2) == RCC_PERIPHCLK_I2C2)
 80011c6:	065a      	lsls	r2, r3, #25
 80011c8:	d506      	bpl.n	80011d8 <HAL_RCCEx_PeriphCLKConfig+0xfc>
  {
    /* Check the parameters */
    assert_param(IS_RCC_I2C2CLKSOURCE(PeriphClkInit->I2c2ClockSelection));
    
    /* Configure the I2C2 clock source */
    __HAL_RCC_I2C2_CONFIG(PeriphClkInit->I2c2ClockSelection);
 80011ca:	4945      	ldr	r1, [pc, #276]	@ (80012e0 <HAL_RCCEx_PeriphCLKConfig+0x204>)
 80011cc:	6a20      	ldr	r0, [r4, #32]
 80011ce:	6b0a      	ldr	r2, [r1, #48]	@ 0x30
 80011d0:	f022 0220 	bic.w	r2, r2, #32
 80011d4:	4302      	orrs	r2, r0
 80011d6:	630a      	str	r2, [r1, #48]	@ 0x30
  
#if defined(STM32F302xE) || defined(STM32F303xE) || defined(STM32F398xx)\
 || defined(STM32F302xC) || defined(STM32F303xC) || defined(STM32F358xx)

  /*------------------------------ UART4 Configuration ------------------------*/ 
  if(((PeriphClkInit->PeriphClockSelection) & RCC_PERIPHCLK_UART4) == RCC_PERIPHCLK_UART4)
 80011d8:	071f      	lsls	r7, r3, #28
 80011da:	d506      	bpl.n	80011ea <HAL_RCCEx_PeriphCLKConfig+0x10e>
  {
    /* Check the parameters */
    assert_param(IS_RCC_UART4CLKSOURCE(PeriphClkInit->Uart4ClockSelection));
    
    /* Configure the UART4 clock source */
    __HAL_RCC_UART4_CONFIG(PeriphClkInit->Uart4ClockSelection);
 80011dc:	4940      	ldr	r1, [pc, #256]	@ (80012e0 <HAL_RCCEx_PeriphCLKConfig+0x204>)
 80011de:	6960      	ldr	r0, [r4, #20]
 80011e0:	6b0a      	ldr	r2, [r1, #48]	@ 0x30
 80011e2:	f422 1240 	bic.w	r2, r2, #3145728	@ 0x300000
 80011e6:	4302      	orrs	r2, r0
 80011e8:	630a      	str	r2, [r1, #48]	@ 0x30
  }

  /*------------------------------ UART5 Configuration ------------------------*/ 
  if(((PeriphClkInit->PeriphClockSelection) & RCC_PERIPHCLK_UART5) == RCC_PERIPHCLK_UART5)
 80011ea:	06de      	lsls	r6, r3, #27
 80011ec:	d506      	bpl.n	80011fc <HAL_RCCEx_PeriphCLKConfig+0x120>
  {
    /* Check the parameters */
    assert_param(IS_RCC_UART5CLKSOURCE(PeriphClkInit->Uart5ClockSelection));
    
    /* Configure the UART5 clock source */
    __HAL_RCC_UART5_CONFIG(PeriphClkInit->Uart5ClockSelection);
 80011ee:	493c      	ldr	r1, [pc, #240]	@ (80012e0 <HAL_RCCEx_PeriphCLKConfig+0x204>)
 80011f0:	69a0      	ldr	r0, [r4, #24]
 80011f2:	6b0a      	ldr	r2, [r1, #48]	@ 0x30
 80011f4:	f422 0240 	bic.w	r2, r2, #12582912	@ 0xc00000
 80011f8:	4302      	orrs	r2, r0
 80011fa:	630a      	str	r2, [r1, #48]	@ 0x30

#if defined(STM32F302xE) || defined(STM32F303xE) || defined(STM32F398xx)\
 || defined(STM32F302xC) || defined(STM32F303xC) || defined(STM32F358xx)\
 || defined(STM32F301x8) || defined(STM32F302x8) || defined(STM32F318xx)
  /*------------------------------ I2S Configuration ------------------------*/ 
  if(((PeriphClkInit->PeriphClockSelection) & RCC_PERIPHCLK_I2S) == RCC_PERIPHCLK_I2S)
 80011fc:	059d      	lsls	r5, r3, #22
 80011fe:	d506      	bpl.n	800120e <HAL_RCCEx_PeriphCLKConfig+0x132>
  {
    /* Check the parameters */
    assert_param(IS_RCC_I2SCLKSOURCE(PeriphClkInit->I2sClockSelection));
    
    /* Configure the I2S clock source */
    __HAL_RCC_I2S_CONFIG(PeriphClkInit->I2sClockSelection);
 8001200:	4937      	ldr	r1, [pc, #220]	@ (80012e0 <HAL_RCCEx_PeriphCLKConfig+0x204>)
 8001202:	6ae0      	ldr	r0, [r4, #44]	@ 0x2c
 8001204:	684a      	ldr	r2, [r1, #4]
 8001206:	f422 0200 	bic.w	r2, r2, #8388608	@ 0x800000
 800120a:	4302      	orrs	r2, r0
 800120c:	604a      	str	r2, [r1, #4]
#if defined(STM32F302xE) || defined(STM32F303xE) || defined(STM32F398xx)\
 || defined(STM32F302xC) || defined(STM32F303xC) || defined(STM32F358xx)\
 || defined(STM32F303x8) || defined(STM32F334x8) || defined(STM32F328xx)
      
  /*------------------------------ ADC1 & ADC2 clock Configuration -------------*/ 
  if(((PeriphClkInit->PeriphClockSelection) & RCC_PERIPHCLK_ADC12) == RCC_PERIPHCLK_ADC12)
 800120e:	0618      	lsls	r0, r3, #24
 8001210:	d506      	bpl.n	8001220 <HAL_RCCEx_PeriphCLKConfig+0x144>
  {
    /* Check the parameters */
    assert_param(IS_RCC_ADC12PLLCLK_DIV(PeriphClkInit->Adc12ClockSelection));
    
    /* Configure the ADC12 clock source */
    __HAL_RCC_ADC12_CONFIG(PeriphClkInit->Adc12ClockSelection);
 8001212:	4933      	ldr	r1, [pc, #204]	@ (80012e0 <HAL_RCCEx_PeriphCLKConfig+0x204>)
 8001214:	6a60      	ldr	r0, [r4, #36]	@ 0x24
 8001216:	6aca      	ldr	r2, [r1, #44]	@ 0x2c
 8001218:	f422 72f8 	bic.w	r2, r2, #496	@ 0x1f0
 800121c:	4302      	orrs	r2, r0
 800121e:	62ca      	str	r2, [r1, #44]	@ 0x2c
  
#if defined(STM32F303xE) || defined(STM32F398xx)\
 || defined(STM32F303xC) || defined(STM32F358xx)

  /*------------------------------ ADC3 & ADC4 clock Configuration -------------*/ 
  if(((PeriphClkInit->PeriphClockSelection) & RCC_PERIPHCLK_ADC34) == RCC_PERIPHCLK_ADC34)
 8001220:	05d9      	lsls	r1, r3, #23
 8001222:	d506      	bpl.n	8001232 <HAL_RCCEx_PeriphCLKConfig+0x156>
  {
    /* Check the parameters */
    assert_param(IS_RCC_ADC34PLLCLK_DIV(PeriphClkInit->Adc34ClockSelection));
    
    /* Configure the ADC34 clock source */
    __HAL_RCC_ADC34_CONFIG(PeriphClkInit->Adc34ClockSelection);
 8001224:	492e      	ldr	r1, [pc, #184]	@ (80012e0 <HAL_RCCEx_PeriphCLKConfig+0x204>)
 8001226:	6aa0      	ldr	r0, [r4, #40]	@ 0x28
 8001228:	6aca      	ldr	r2, [r1, #44]	@ 0x2c
 800122a:	f422 5278 	bic.w	r2, r2, #15872	@ 0x3e00
 800122e:	4302      	orrs	r2, r0
 8001230:	62ca      	str	r2, [r1, #44]	@ 0x2c
 || defined(STM32F302xC) || defined(STM32F303xC) || defined(STM32F358xx)\
 || defined(STM32F303x8) || defined(STM32F334x8) || defined(STM32F328xx)\
 || defined(STM32F301x8) || defined(STM32F302x8) || defined(STM32F318xx)

  /*------------------------------ TIM1 clock Configuration ----------------*/ 
  if(((PeriphClkInit->PeriphClockSelection) & RCC_PERIPHCLK_TIM1) == RCC_PERIPHCLK_TIM1)
 8001232:	04da      	lsls	r2, r3, #19
 8001234:	d506      	bpl.n	8001244 <HAL_RCCEx_PeriphCLKConfig+0x168>
  {
    /* Check the parameters */
    assert_param(IS_RCC_TIM1CLKSOURCE(PeriphClkInit->Tim1ClockSelection));
    
    /* Configure the TIM1 clock source */
    __HAL_RCC_TIM1_CONFIG(PeriphClkInit->Tim1ClockSelection);
 8001236:	492a      	ldr	r1, [pc, #168]	@ (80012e0 <HAL_RCCEx_PeriphCLKConfig+0x204>)
 8001238:	6b20      	ldr	r0, [r4, #48]	@ 0x30
 800123a:	6b0a      	ldr	r2, [r1, #48]	@ 0x30
 800123c:	f422 7280 	bic.w	r2, r2, #256	@ 0x100
 8001240:	4302      	orrs	r2, r0
 8001242:	630a      	str	r2, [r1, #48]	@ 0x30
  
#if defined(STM32F303xE) || defined(STM32F398xx)\
 || defined(STM32F303xC) || defined(STM32F358xx)

  /*------------------------------ TIM8 clock Configuration ----------------*/ 
  if(((PeriphClkInit->PeriphClockSelection) & RCC_PERIPHCLK_TIM8) == RCC_PERIPHCLK_TIM8)
 8001244:	049b      	lsls	r3, r3, #18
 8001246:	d403      	bmi.n	8001250 <HAL_RCCEx_PeriphCLKConfig+0x174>
    __HAL_RCC_TIM20_CONFIG(PeriphClkInit->Tim20ClockSelection);
  }
#endif /* STM32F303xE || STM32F398xx */  

  
  return HAL_OK;
 8001248:	2000      	movs	r0, #0
}
 800124a:	b003      	add	sp, #12
 800124c:	e8bd 83f0 	ldmia.w	sp!, {r4, r5, r6, r7, r8, r9, pc}
    __HAL_RCC_TIM8_CONFIG(PeriphClkInit->Tim8ClockSelection);
 8001250:	4a23      	ldr	r2, [pc, #140]	@ (80012e0 <HAL_RCCEx_PeriphCLKConfig+0x204>)
 8001252:	6b61      	ldr	r1, [r4, #52]	@ 0x34
 8001254:	6b13      	ldr	r3, [r2, #48]	@ 0x30
 8001256:	f423 7300 	bic.w	r3, r3, #512	@ 0x200
 800125a:	430b      	orrs	r3, r1
 800125c:	6313      	str	r3, [r2, #48]	@ 0x30
 800125e:	e7f3      	b.n	8001248 <HAL_RCCEx_PeriphCLKConfig+0x16c>
      __HAL_RCC_PWR_CLK_ENABLE();
 8001260:	69da      	ldr	r2, [r3, #28]
    if(HAL_IS_BIT_CLR(PWR->CR, PWR_CR_DBP))
 8001262:	4d20      	ldr	r5, [pc, #128]	@ (80012e4 <HAL_RCCEx_PeriphCLKConfig+0x208>)
      __HAL_RCC_PWR_CLK_ENABLE();
 8001264:	f042 5280 	orr.w	r2, r2, #268435456	@ 0x10000000
 8001268:	61da      	str	r2, [r3, #28]
 800126a:	69db      	ldr	r3, [r3, #28]
 800126c:	f003 5380 	and.w	r3, r3, #268435456	@ 0x10000000
 8001270:	9301      	str	r3, [sp, #4]
 8001272:	9b01      	ldr	r3, [sp, #4]
    if(HAL_IS_BIT_CLR(PWR->CR, PWR_CR_DBP))
 8001274:	682b      	ldr	r3, [r5, #0]
 8001276:	05d9      	lsls	r1, r3, #23
      pwrclkchanged = SET;
 8001278:	f04f 0601 	mov.w	r6, #1
    if(HAL_IS_BIT_CLR(PWR->CR, PWR_CR_DBP))
 800127c:	f53f af41 	bmi.w	8001102 <HAL_RCCEx_PeriphCLKConfig+0x26>
      SET_BIT(PWR->CR, PWR_CR_DBP);
 8001280:	682b      	ldr	r3, [r5, #0]
 8001282:	f443 7380 	orr.w	r3, r3, #256	@ 0x100
 8001286:	602b      	str	r3, [r5, #0]
      tickstart = HAL_GetTick();
 8001288:	f7fe ffe0 	bl	800024c <HAL_GetTick>
 800128c:	4607      	mov	r7, r0
      while(HAL_IS_BIT_CLR(PWR->CR, PWR_CR_DBP))
 800128e:	682b      	ldr	r3, [r5, #0]
 8001290:	05da      	lsls	r2, r3, #23
 8001292:	f53f af36 	bmi.w	8001102 <HAL_RCCEx_PeriphCLKConfig+0x26>
          if((HAL_GetTick() - tickstart) > RCC_DBP_TIMEOUT_VALUE)
 8001296:	f7fe ffd9 	bl	800024c <HAL_GetTick>
 800129a:	1bc0      	subs	r0, r0, r7
 800129c:	2864      	cmp	r0, #100	@ 0x64
 800129e:	d9f6      	bls.n	800128e <HAL_RCCEx_PeriphCLKConfig+0x1b2>
          return HAL_TIMEOUT;
 80012a0:	2003      	movs	r0, #3
}
 80012a2:	b003      	add	sp, #12
 80012a4:	e8bd 83f0 	ldmia.w	sp!, {r4, r5, r6, r7, r8, r9, pc}
        tickstart = HAL_GetTick();
 80012a8:	f7fe ffd0 	bl	800024c <HAL_GetTick>
 80012ac:	f04f 0902 	mov.w	r9, #2
 80012b0:	4607      	mov	r7, r0
 80012b2:	fa99 f3a9 	rbit	r3, r9
 80012b6:	fa99 f3a9 	rbit	r3, r9
        while(__HAL_RCC_GET_FLAG(RCC_FLAG_LSERDY) == RESET)
 80012ba:	f8d8 2020 	ldr.w	r2, [r8, #32]
 80012be:	fa99 f3a9 	rbit	r3, r9
 80012c2:	fab3 f383 	clz	r3, r3
 80012c6:	fa05 f303 	lsl.w	r3, r5, r3
 80012ca:	4213      	tst	r3, r2
 80012cc:	f47f af41 	bne.w	8001152 <HAL_RCCEx_PeriphCLKConfig+0x76>
            if((HAL_GetTick() - tickstart) > RCC_LSE_TIMEOUT_VALUE)
 80012d0:	f7fe ffbc 	bl	800024c <HAL_GetTick>
 80012d4:	f241 3388 	movw	r3, #5000	@ 0x1388
 80012d8:	1bc0      	subs	r0, r0, r7
 80012da:	4298      	cmp	r0, r3
 80012dc:	d9e9      	bls.n	80012b2 <HAL_RCCEx_PeriphCLKConfig+0x1d6>
 80012de:	e7df      	b.n	80012a0 <HAL_RCCEx_PeriphCLKConfig+0x1c4>
 80012e0:	40021000 	.word	0x40021000
 80012e4:	40007000 	.word	0x40007000
 80012e8:	10908100 	.word	0x10908100

080012ec <HAL_SPI_Init>:
HAL_StatusTypeDef HAL_SPI_Init(SPI_HandleTypeDef *hspi)
{
  uint32_t frxth;

  /* Check the SPI handle allocation */
  if (hspi == NULL)
 80012ec:	2800      	cmp	r0, #0
 80012ee:	d077      	beq.n	80013e0 <HAL_SPI_Init+0xf4>
  assert_param(IS_SPI_NSS(hspi->Init.NSS));
  assert_param(IS_SPI_NSSP(hspi->Init.NSSPMode));
  assert_param(IS_SPI_BAUDRATE_PRESCALER(hspi->Init.BaudRatePrescaler));
  assert_param(IS_SPI_FIRST_BIT(hspi->Init.FirstBit));
  assert_param(IS_SPI_TIMODE(hspi->Init.TIMode));
  if (hspi->Init.TIMode == SPI_TIMODE_DISABLE)
 80012f0:	6a42      	ldr	r2, [r0, #36]	@ 0x24
{
 80012f2:	e92d 41f0 	stmdb	sp!, {r4, r5, r6, r7, r8, lr}
 80012f6:	4604      	mov	r4, r0
  if (hspi->Init.TIMode == SPI_TIMODE_DISABLE)
 80012f8:	2a00      	cmp	r2, #0
 80012fa:	d057      	beq.n	80013ac <HAL_SPI_Init+0xc0>
  else
  {
    assert_param(IS_SPI_BAUDRATE_PRESCALER(hspi->Init.BaudRatePrescaler));

    /* Force polarity and phase to TI protocaol requirements */
    hspi->Init.CLKPolarity = SPI_POLARITY_LOW;
 80012fc:	2300      	movs	r3, #0
 80012fe:	e9c0 3304 	strd	r3, r3, [r0, #16]
  }
#else
  hspi->Init.CRCCalculation = SPI_CRCCALCULATION_DISABLE;
#endif /* USE_SPI_CRC */

  if (hspi->State == HAL_SPI_STATE_RESET)
 8001302:	f894 305d 	ldrb.w	r3, [r4, #93]	@ 0x5d
  hspi->Init.CRCCalculation = SPI_CRCCALCULATION_DISABLE;
 8001306:	2100      	movs	r1, #0
 8001308:	62a1      	str	r1, [r4, #40]	@ 0x28
  if (hspi->State == HAL_SPI_STATE_RESET)
 800130a:	f003 01ff 	and.w	r1, r3, #255	@ 0xff
 800130e:	2b00      	cmp	r3, #0
 8001310:	d05a      	beq.n	80013c8 <HAL_SPI_Init+0xdc>
  }

  hspi->State = HAL_SPI_STATE_BUSY;

  /* Disable the selected SPI peripheral */
  __HAL_SPI_DISABLE(hspi);
 8001312:	6821      	ldr	r1, [r4, #0]

  /* Align by default the rs fifo threshold on the data size */
  if (hspi->Init.DataSize > SPI_DATASIZE_8BIT)
 8001314:	68e7      	ldr	r7, [r4, #12]
  hspi->State = HAL_SPI_STATE_BUSY;
 8001316:	2302      	movs	r3, #2
 8001318:	f884 305d 	strb.w	r3, [r4, #93]	@ 0x5d
  __HAL_SPI_DISABLE(hspi);
 800131c:	680b      	ldr	r3, [r1, #0]
  if (hspi->Init.DataSize > SPI_DATASIZE_8BIT)
 800131e:	f5b7 6fe0 	cmp.w	r7, #1792	@ 0x700
  __HAL_SPI_DISABLE(hspi);
 8001322:	f023 0340 	bic.w	r3, r3, #64	@ 0x40
 8001326:	600b      	str	r3, [r1, #0]
  if (hspi->Init.DataSize > SPI_DATASIZE_8BIT)
 8001328:	d846      	bhi.n	80013b8 <HAL_SPI_Init+0xcc>
  {
    frxth = SPI_RXFIFO_THRESHOLD_QF;
  }

  /* CRC calculation is valid only for 16Bit and 8 Bit */
  if ((hspi->Init.DataSize != SPI_DATASIZE_16BIT) && (hspi->Init.DataSize != SPI_DATASIZE_8BIT))
 800132a:	d154      	bne.n	80013d6 <HAL_SPI_Init+0xea>
  }

  /*----------------------- SPIx CR1 & CR2 Configuration ---------------------*/
  /* Configure : SPI Mode, Communication Mode, Clock polarity and phase, NSS management,
  Communication speed, First bit and CRC calculation state */
  WRITE_REG(hspi->Instance->CR1, ((hspi->Init.Mode & (SPI_CR1_MSTR | SPI_CR1_SSI)) |
 800132c:	6aa5      	ldr	r5, [r4, #40]	@ 0x28
    frxth = SPI_RXFIFO_THRESHOLD_QF;
 800132e:	f44f 5080 	mov.w	r0, #4096	@ 0x1000
  WRITE_REG(hspi->Instance->CR1, ((hspi->Init.Mode & (SPI_CR1_MSTR | SPI_CR1_SSI)) |
 8001332:	f405 5500 	and.w	r5, r5, #8192	@ 0x2000
 8001336:	68a3      	ldr	r3, [r4, #8]
 8001338:	69a6      	ldr	r6, [r4, #24]
    }
  }
#endif /* USE_SPI_CRC */

  /* Configure : NSS management, TI Mode, NSS Pulse, Data size and Rx Fifo threshold */
  WRITE_REG(hspi->Instance->CR2, (((hspi->Init.NSS >> 16U) & SPI_CR2_SSOE) |
 800133a:	f002 0c10 	and.w	ip, r2, #16
  WRITE_REG(hspi->Instance->CR1, ((hspi->Init.Mode & (SPI_CR1_MSTR | SPI_CR1_SSI)) |
 800133e:	6862      	ldr	r2, [r4, #4]
 8001340:	f403 4304 	and.w	r3, r3, #33792	@ 0x8400
 8001344:	f402 7282 	and.w	r2, r2, #260	@ 0x104
 8001348:	431a      	orrs	r2, r3
 800134a:	6923      	ldr	r3, [r4, #16]
 800134c:	f003 0302 	and.w	r3, r3, #2
 8001350:	4313      	orrs	r3, r2
 8001352:	6962      	ldr	r2, [r4, #20]
 8001354:	f002 0201 	and.w	r2, r2, #1
 8001358:	431a      	orrs	r2, r3
  WRITE_REG(hspi->Instance->CR2, (((hspi->Init.NSS >> 16U) & SPI_CR2_SSOE) |
 800135a:	6b63      	ldr	r3, [r4, #52]	@ 0x34
 800135c:	f407 6770 	and.w	r7, r7, #3840	@ 0xf00
 8001360:	f003 0308 	and.w	r3, r3, #8
 8001364:	ea43 0e07 	orr.w	lr, r3, r7
  WRITE_REG(hspi->Instance->CR1, ((hspi->Init.Mode & (SPI_CR1_MSTR | SPI_CR1_SSI)) |
 8001368:	69e3      	ldr	r3, [r4, #28]
 800136a:	f003 0838 	and.w	r8, r3, #56	@ 0x38
 800136e:	6a23      	ldr	r3, [r4, #32]
 8001370:	f003 0780 	and.w	r7, r3, #128	@ 0x80
 8001374:	f406 7300 	and.w	r3, r6, #512	@ 0x200
 8001378:	4313      	orrs	r3, r2
 800137a:	ea43 0308 	orr.w	r3, r3, r8
 800137e:	433b      	orrs	r3, r7
  WRITE_REG(hspi->Instance->CR2, (((hspi->Init.NSS >> 16U) & SPI_CR2_SSOE) |
 8001380:	0c36      	lsrs	r6, r6, #16
  WRITE_REG(hspi->Instance->CR1, ((hspi->Init.Mode & (SPI_CR1_MSTR | SPI_CR1_SSI)) |
 8001382:	432b      	orrs	r3, r5
  WRITE_REG(hspi->Instance->CR2, (((hspi->Init.NSS >> 16U) & SPI_CR2_SSOE) |
 8001384:	f006 0604 	and.w	r6, r6, #4
  WRITE_REG(hspi->Instance->CR1, ((hspi->Init.Mode & (SPI_CR1_MSTR | SPI_CR1_SSI)) |
 8001388:	600b      	str	r3, [r1, #0]
  WRITE_REG(hspi->Instance->CR2, (((hspi->Init.NSS >> 16U) & SPI_CR2_SSOE) |
 800138a:	ea4e 0306 	orr.w	r3, lr, r6
 800138e:	ea43 030c 	orr.w	r3, r3, ip
 8001392:	4303      	orrs	r3, r0
 8001394:	604b      	str	r3, [r1, #4]
  }
#endif /* USE_SPI_CRC */

#if defined(SPI_I2SCFGR_I2SMOD)
  /* Activate the SPI mode (Make sure that I2SMOD bit in I2SCFGR register is reset) */
  CLEAR_BIT(hspi->Instance->I2SCFGR, SPI_I2SCFGR_I2SMOD);
 8001396:	69cb      	ldr	r3, [r1, #28]
#endif /* SPI_I2SCFGR_I2SMOD */

  hspi->ErrorCode = HAL_SPI_ERROR_NONE;
 8001398:	2000      	movs	r0, #0
  CLEAR_BIT(hspi->Instance->I2SCFGR, SPI_I2SCFGR_I2SMOD);
 800139a:	f423 6300 	bic.w	r3, r3, #2048	@ 0x800
  hspi->State     = HAL_SPI_STATE_READY;
 800139e:	2201      	movs	r2, #1
  CLEAR_BIT(hspi->Instance->I2SCFGR, SPI_I2SCFGR_I2SMOD);
 80013a0:	61cb      	str	r3, [r1, #28]
  hspi->ErrorCode = HAL_SPI_ERROR_NONE;
 80013a2:	6620      	str	r0, [r4, #96]	@ 0x60
  hspi->State     = HAL_SPI_STATE_READY;
 80013a4:	f884 205d 	strb.w	r2, [r4, #93]	@ 0x5d

  return HAL_OK;
}
 80013a8:	e8bd 81f0 	ldmia.w	sp!, {r4, r5, r6, r7, r8, pc}
    if (hspi->Init.Mode == SPI_MODE_MASTER)
 80013ac:	6843      	ldr	r3, [r0, #4]
 80013ae:	f5b3 7f82 	cmp.w	r3, #260	@ 0x104
 80013b2:	d0a6      	beq.n	8001302 <HAL_SPI_Init+0x16>
      hspi->Init.BaudRatePrescaler = SPI_BAUDRATEPRESCALER_2;
 80013b4:	61c2      	str	r2, [r0, #28]
 80013b6:	e7a4      	b.n	8001302 <HAL_SPI_Init+0x16>
  if ((hspi->Init.DataSize != SPI_DATASIZE_16BIT) && (hspi->Init.DataSize != SPI_DATASIZE_8BIT))
 80013b8:	f5b7 6f70 	cmp.w	r7, #3840	@ 0xf00
 80013bc:	d112      	bne.n	80013e4 <HAL_SPI_Init+0xf8>
  WRITE_REG(hspi->Instance->CR1, ((hspi->Init.Mode & (SPI_CR1_MSTR | SPI_CR1_SSI)) |
 80013be:	6aa5      	ldr	r5, [r4, #40]	@ 0x28
    frxth = SPI_RXFIFO_THRESHOLD_HF;
 80013c0:	2000      	movs	r0, #0
  WRITE_REG(hspi->Instance->CR1, ((hspi->Init.Mode & (SPI_CR1_MSTR | SPI_CR1_SSI)) |
 80013c2:	f405 5500 	and.w	r5, r5, #8192	@ 0x2000
 80013c6:	e7b6      	b.n	8001336 <HAL_SPI_Init+0x4a>
    hspi->Lock = HAL_UNLOCKED;
 80013c8:	f884 105c 	strb.w	r1, [r4, #92]	@ 0x5c
    HAL_SPI_MspInit(hspi);
 80013cc:	4620      	mov	r0, r4
 80013ce:	f001 ff23 	bl	8003218 <HAL_SPI_MspInit>
  WRITE_REG(hspi->Instance->CR2, (((hspi->Init.NSS >> 16U) & SPI_CR2_SSOE) |
 80013d2:	6a62      	ldr	r2, [r4, #36]	@ 0x24
 80013d4:	e79d      	b.n	8001312 <HAL_SPI_Init+0x26>
    frxth = SPI_RXFIFO_THRESHOLD_QF;
 80013d6:	f44f 5080 	mov.w	r0, #4096	@ 0x1000
    hspi->Init.CRCCalculation = SPI_CRCCALCULATION_DISABLE;
 80013da:	2500      	movs	r5, #0
 80013dc:	62a5      	str	r5, [r4, #40]	@ 0x28
 80013de:	e7aa      	b.n	8001336 <HAL_SPI_Init+0x4a>
    return HAL_ERROR;
 80013e0:	2001      	movs	r0, #1
}
 80013e2:	4770      	bx	lr
    frxth = SPI_RXFIFO_THRESHOLD_HF;
 80013e4:	2000      	movs	r0, #0
 80013e6:	e7f8      	b.n	80013da <HAL_SPI_Init+0xee>

080013e8 <TIM_OC1_SetConfig>:
  uint32_t tmpccmrx;
  uint32_t tmpccer;
  uint32_t tmpcr2;

  /* Get the TIMx CCER register value */
  tmpccer = TIMx->CCER;
 80013e8:	6a03      	ldr	r3, [r0, #32]

  /* Disable the Channel 1: Reset the CC1E Bit */
  TIMx->CCER &= ~TIM_CCER_CC1E;
 80013ea:	6a02      	ldr	r2, [r0, #32]
 80013ec:	f022 0201 	bic.w	r2, r2, #1
{
 80013f0:	b470      	push	{r4, r5, r6}
  TIMx->CCER &= ~TIM_CCER_CC1E;
 80013f2:	6202      	str	r2, [r0, #32]

  /* Get the TIMx CR2 register value */
  tmpcr2 =  TIMx->CR2;
 80013f4:	6844      	ldr	r4, [r0, #4]

  /* Get the TIMx CCMR1 register value */
  tmpccmrx = TIMx->CCMR1;
 80013f6:	6982      	ldr	r2, [r0, #24]

  /* Reset the Output Compare Mode Bits */
  tmpccmrx &= ~TIM_CCMR1_OC1M;
  tmpccmrx &= ~TIM_CCMR1_CC1S;
  /* Select the Output Compare Mode */
  tmpccmrx |= OC_Config->OCMode;
 80013f8:	680d      	ldr	r5, [r1, #0]
  tmpccmrx &= ~TIM_CCMR1_CC1S;
 80013fa:	f422 3280 	bic.w	r2, r2, #65536	@ 0x10000
 80013fe:	f022 0273 	bic.w	r2, r2, #115	@ 0x73
  tmpccmrx |= OC_Config->OCMode;
 8001402:	432a      	orrs	r2, r5

  /* Reset the Output Polarity level */
  tmpccer &= ~TIM_CCER_CC1P;
  /* Set the Output Compare Polarity */
  tmpccer |= OC_Config->OCPolarity;
 8001404:	688d      	ldr	r5, [r1, #8]
  tmpccer &= ~TIM_CCER_CC1P;
 8001406:	f023 0302 	bic.w	r3, r3, #2
  tmpccer |= OC_Config->OCPolarity;
 800140a:	432b      	orrs	r3, r5

  if (IS_TIM_CCXN_INSTANCE(TIMx, TIM_CHANNEL_1))
 800140c:	4d13      	ldr	r5, [pc, #76]	@ (800145c <TIM_OC1_SetConfig+0x74>)
 800140e:	42a8      	cmp	r0, r5
 8001410:	d00f      	beq.n	8001432 <TIM_OC1_SetConfig+0x4a>
 8001412:	f505 6500 	add.w	r5, r5, #2048	@ 0x800
 8001416:	42a8      	cmp	r0, r5
 8001418:	d00b      	beq.n	8001432 <TIM_OC1_SetConfig+0x4a>
 800141a:	f505 6540 	add.w	r5, r5, #3072	@ 0xc00
 800141e:	42a8      	cmp	r0, r5
 8001420:	d007      	beq.n	8001432 <TIM_OC1_SetConfig+0x4a>
 8001422:	f505 6580 	add.w	r5, r5, #1024	@ 0x400
 8001426:	42a8      	cmp	r0, r5
 8001428:	d003      	beq.n	8001432 <TIM_OC1_SetConfig+0x4a>
 800142a:	f505 6580 	add.w	r5, r5, #1024	@ 0x400
 800142e:	42a8      	cmp	r0, r5
 8001430:	d10d      	bne.n	800144e <TIM_OC1_SetConfig+0x66>
    assert_param(IS_TIM_OCN_POLARITY(OC_Config->OCNPolarity));

    /* Reset the Output N Polarity level */
    tmpccer &= ~TIM_CCER_CC1NP;
    /* Set the Output N Polarity */
    tmpccer |= OC_Config->OCNPolarity;
 8001432:	68cd      	ldr	r5, [r1, #12]
    tmpccer &= ~TIM_CCER_CC1NP;
 8001434:	f023 0308 	bic.w	r3, r3, #8
    tmpccer |= OC_Config->OCNPolarity;
 8001438:	432b      	orrs	r3, r5
    tmpcr2 &= ~TIM_CR2_OIS1;
    tmpcr2 &= ~TIM_CR2_OIS1N;
    /* Set the Output Idle state */
    tmpcr2 |= OC_Config->OCIdleState;
    /* Set the Output N Idle state */
    tmpcr2 |= OC_Config->OCNIdleState;
 800143a:	e9d1 6505 	ldrd	r6, r5, [r1, #20]
    tmpcr2 &= ~TIM_CR2_OIS1N;
 800143e:	f424 7440 	bic.w	r4, r4, #768	@ 0x300
    tmpcr2 |= OC_Config->OCNIdleState;
 8001442:	ea46 0c05 	orr.w	ip, r6, r5
    tmpccer &= ~TIM_CCER_CC1NE;
 8001446:	f023 0304 	bic.w	r3, r3, #4
    tmpcr2 |= OC_Config->OCNIdleState;
 800144a:	ea4c 0404 	orr.w	r4, ip, r4

  /* Write to TIMx CCMR1 */
  TIMx->CCMR1 = tmpccmrx;

  /* Set the Capture Compare Register value */
  TIMx->CCR1 = OC_Config->Pulse;
 800144e:	6849      	ldr	r1, [r1, #4]
  TIMx->CR2 = tmpcr2;
 8001450:	6044      	str	r4, [r0, #4]
  TIMx->CCMR1 = tmpccmrx;
 8001452:	6182      	str	r2, [r0, #24]

  /* Write to TIMx CCER */
  TIMx->CCER = tmpccer;
}
 8001454:	bc70      	pop	{r4, r5, r6}
  TIMx->CCR1 = OC_Config->Pulse;
 8001456:	6341      	str	r1, [r0, #52]	@ 0x34
  TIMx->CCER = tmpccer;
 8001458:	6203      	str	r3, [r0, #32]
}
 800145a:	4770      	bx	lr
 800145c:	40012c00 	.word	0x40012c00

08001460 <TIM_OC3_SetConfig>:
  uint32_t tmpccmrx;
  uint32_t tmpccer;
  uint32_t tmpcr2;

  /* Get the TIMx CCER register value */
  tmpccer = TIMx->CCER;
 8001460:	6a03      	ldr	r3, [r0, #32]

  /* Disable the Channel 3: Reset the CC2E Bit */
  TIMx->CCER &= ~TIM_CCER_CC3E;
 8001462:	6a02      	ldr	r2, [r0, #32]
 8001464:	f422 7280 	bic.w	r2, r2, #256	@ 0x100
{
 8001468:	b470      	push	{r4, r5, r6}
  TIMx->CCER &= ~TIM_CCER_CC3E;
 800146a:	6202      	str	r2, [r0, #32]

  /* Get the TIMx CR2 register value */
  tmpcr2 =  TIMx->CR2;
 800146c:	6844      	ldr	r4, [r0, #4]

  /* Get the TIMx CCMR2 register value */
  tmpccmrx = TIMx->CCMR2;
 800146e:	69c2      	ldr	r2, [r0, #28]

  /* Reset the Output Compare mode and Capture/Compare selection Bits */
  tmpccmrx &= ~TIM_CCMR2_OC3M;
  tmpccmrx &= ~TIM_CCMR2_CC3S;
  /* Select the Output Compare Mode */
  tmpccmrx |= OC_Config->OCMode;
 8001470:	680d      	ldr	r5, [r1, #0]
  tmpccmrx &= ~TIM_CCMR2_CC3S;
 8001472:	f422 3280 	bic.w	r2, r2, #65536	@ 0x10000
 8001476:	f022 0273 	bic.w	r2, r2, #115	@ 0x73
  tmpccmrx |= OC_Config->OCMode;
 800147a:	432a      	orrs	r2, r5

  /* Reset the Output Polarity level */
  tmpccer &= ~TIM_CCER_CC3P;
  /* Set the Output Compare Polarity */
  tmpccer |= (OC_Config->OCPolarity << 8U);
 800147c:	688d      	ldr	r5, [r1, #8]
  tmpccer &= ~TIM_CCER_CC3P;
 800147e:	f423 7300 	bic.w	r3, r3, #512	@ 0x200
  tmpccer |= (OC_Config->OCPolarity << 8U);
 8001482:	ea43 2305 	orr.w	r3, r3, r5, lsl #8

  if (IS_TIM_CCXN_INSTANCE(TIMx, TIM_CHANNEL_3))
 8001486:	4d14      	ldr	r5, [pc, #80]	@ (80014d8 <TIM_OC3_SetConfig+0x78>)
 8001488:	42a8      	cmp	r0, r5
 800148a:	d00f      	beq.n	80014ac <TIM_OC3_SetConfig+0x4c>
 800148c:	f505 6500 	add.w	r5, r5, #2048	@ 0x800
 8001490:	42a8      	cmp	r0, r5
 8001492:	d00b      	beq.n	80014ac <TIM_OC3_SetConfig+0x4c>
    /* Reset the Output N State */
    tmpccer &= ~TIM_CCER_CC3NE;
  }

#if defined(TIM_CR2_OIS3)
  if (IS_TIM_BREAK_INSTANCE(TIMx))
 8001494:	f505 6540 	add.w	r5, r5, #3072	@ 0xc00
 8001498:	42a8      	cmp	r0, r5
 800149a:	d00e      	beq.n	80014ba <TIM_OC3_SetConfig+0x5a>
 800149c:	4d0f      	ldr	r5, [pc, #60]	@ (80014dc <TIM_OC3_SetConfig+0x7c>)
 800149e:	42a8      	cmp	r0, r5
 80014a0:	d00b      	beq.n	80014ba <TIM_OC3_SetConfig+0x5a>
 80014a2:	f505 6580 	add.w	r5, r5, #1024	@ 0x400
 80014a6:	42a8      	cmp	r0, r5
 80014a8:	d10f      	bne.n	80014ca <TIM_OC3_SetConfig+0x6a>
 80014aa:	e006      	b.n	80014ba <TIM_OC3_SetConfig+0x5a>
    tmpccer |= (OC_Config->OCNPolarity << 8U);
 80014ac:	68cd      	ldr	r5, [r1, #12]
    tmpccer &= ~TIM_CCER_CC3NP;
 80014ae:	f423 6300 	bic.w	r3, r3, #2048	@ 0x800
    tmpccer |= (OC_Config->OCNPolarity << 8U);
 80014b2:	ea43 2305 	orr.w	r3, r3, r5, lsl #8
    tmpccer &= ~TIM_CCER_CC3NE;
 80014b6:	f423 6380 	bic.w	r3, r3, #1024	@ 0x400
    tmpcr2 &= ~TIM_CR2_OIS3;
    tmpcr2 &= ~TIM_CR2_OIS3N;
    /* Set the Output Idle state */
    tmpcr2 |= (OC_Config->OCIdleState << 4U);
    /* Set the Output N Idle state */
    tmpcr2 |= (OC_Config->OCNIdleState << 4U);
 80014ba:	e9d1 6505 	ldrd	r6, r5, [r1, #20]
    tmpcr2 &= ~TIM_CR2_OIS3N;
 80014be:	f424 5440 	bic.w	r4, r4, #12288	@ 0x3000
    tmpcr2 |= (OC_Config->OCNIdleState << 4U);
 80014c2:	ea46 0c05 	orr.w	ip, r6, r5
 80014c6:	ea44 140c 	orr.w	r4, r4, ip, lsl #4

  /* Write to TIMx CCMR2 */
  TIMx->CCMR2 = tmpccmrx;

  /* Set the Capture Compare Register value */
  TIMx->CCR3 = OC_Config->Pulse;
 80014ca:	6849      	ldr	r1, [r1, #4]
  TIMx->CR2 = tmpcr2;
 80014cc:	6044      	str	r4, [r0, #4]
  TIMx->CCMR2 = tmpccmrx;
 80014ce:	61c2      	str	r2, [r0, #28]

  /* Write to TIMx CCER */
  TIMx->CCER = tmpccer;
}
 80014d0:	bc70      	pop	{r4, r5, r6}
  TIMx->CCR3 = OC_Config->Pulse;
 80014d2:	63c1      	str	r1, [r0, #60]	@ 0x3c
  TIMx->CCER = tmpccer;
 80014d4:	6203      	str	r3, [r0, #32]
}
 80014d6:	4770      	bx	lr
 80014d8:	40012c00 	.word	0x40012c00
 80014dc:	40014400 	.word	0x40014400

080014e0 <HAL_TIM_Base_Start_IT>:
  if (htim->State != HAL_TIM_STATE_READY)
 80014e0:	f890 303d 	ldrb.w	r3, [r0, #61]	@ 0x3d
 80014e4:	2b01      	cmp	r3, #1
 80014e6:	d122      	bne.n	800152e <HAL_TIM_Base_Start_IT+0x4e>
  __HAL_TIM_ENABLE_IT(htim, TIM_IT_UPDATE);
 80014e8:	6803      	ldr	r3, [r0, #0]
  if (IS_TIM_SLAVE_INSTANCE(htim->Instance))
 80014ea:	4916      	ldr	r1, [pc, #88]	@ (8001544 <HAL_TIM_Base_Start_IT+0x64>)
  htim->State = HAL_TIM_STATE_BUSY;
 80014ec:	2202      	movs	r2, #2
 80014ee:	f880 203d 	strb.w	r2, [r0, #61]	@ 0x3d
  __HAL_TIM_ENABLE_IT(htim, TIM_IT_UPDATE);
 80014f2:	68da      	ldr	r2, [r3, #12]
  if (IS_TIM_SLAVE_INSTANCE(htim->Instance))
 80014f4:	428b      	cmp	r3, r1
  __HAL_TIM_ENABLE_IT(htim, TIM_IT_UPDATE);
 80014f6:	f042 0201 	orr.w	r2, r2, #1
 80014fa:	60da      	str	r2, [r3, #12]
  if (IS_TIM_SLAVE_INSTANCE(htim->Instance))
 80014fc:	d019      	beq.n	8001532 <HAL_TIM_Base_Start_IT+0x52>
 80014fe:	f1b3 4f80 	cmp.w	r3, #1073741824	@ 0x40000000
 8001502:	d016      	beq.n	8001532 <HAL_TIM_Base_Start_IT+0x52>
 8001504:	4a10      	ldr	r2, [pc, #64]	@ (8001548 <HAL_TIM_Base_Start_IT+0x68>)
 8001506:	4293      	cmp	r3, r2
 8001508:	d013      	beq.n	8001532 <HAL_TIM_Base_Start_IT+0x52>
 800150a:	f502 6280 	add.w	r2, r2, #1024	@ 0x400
 800150e:	4293      	cmp	r3, r2
 8001510:	d00f      	beq.n	8001532 <HAL_TIM_Base_Start_IT+0x52>
 8001512:	f502 3296 	add.w	r2, r2, #76800	@ 0x12c00
 8001516:	4293      	cmp	r3, r2
 8001518:	d00b      	beq.n	8001532 <HAL_TIM_Base_Start_IT+0x52>
 800151a:	f502 6240 	add.w	r2, r2, #3072	@ 0xc00
 800151e:	4293      	cmp	r3, r2
 8001520:	d007      	beq.n	8001532 <HAL_TIM_Base_Start_IT+0x52>
      __HAL_TIM_ENABLE(htim);
 8001522:	681a      	ldr	r2, [r3, #0]
 8001524:	f042 0201 	orr.w	r2, r2, #1
 8001528:	601a      	str	r2, [r3, #0]
  return HAL_OK;
 800152a:	2000      	movs	r0, #0
 800152c:	4770      	bx	lr
    return HAL_ERROR;
 800152e:	2001      	movs	r0, #1
}
 8001530:	4770      	bx	lr
    tmpsmcr = htim->Instance->SMCR & TIM_SMCR_SMS;
 8001532:	6899      	ldr	r1, [r3, #8]
 8001534:	4a05      	ldr	r2, [pc, #20]	@ (800154c <HAL_TIM_Base_Start_IT+0x6c>)
 8001536:	400a      	ands	r2, r1
    if (!IS_TIM_SLAVEMODE_TRIGGER_ENABLED(tmpsmcr))
 8001538:	2a06      	cmp	r2, #6
 800153a:	d0f6      	beq.n	800152a <HAL_TIM_Base_Start_IT+0x4a>
 800153c:	f5b2 3f80 	cmp.w	r2, #65536	@ 0x10000
 8001540:	d1ef      	bne.n	8001522 <HAL_TIM_Base_Start_IT+0x42>
 8001542:	e7f2      	b.n	800152a <HAL_TIM_Base_Start_IT+0x4a>
 8001544:	40012c00 	.word	0x40012c00
 8001548:	40000400 	.word	0x40000400
 800154c:	00010007 	.word	0x00010007

08001550 <HAL_TIM_Base_Stop_IT>:
  __HAL_TIM_DISABLE_IT(htim, TIM_IT_UPDATE);
 8001550:	6803      	ldr	r3, [r0, #0]
 8001552:	68da      	ldr	r2, [r3, #12]
 8001554:	f022 0201 	bic.w	r2, r2, #1
 8001558:	60da      	str	r2, [r3, #12]
  __HAL_TIM_DISABLE(htim);
 800155a:	6a1a      	ldr	r2, [r3, #32]
 800155c:	f241 1111 	movw	r1, #4369	@ 0x1111
 8001560:	420a      	tst	r2, r1
 8001562:	d108      	bne.n	8001576 <HAL_TIM_Base_Stop_IT+0x26>
 8001564:	6a19      	ldr	r1, [r3, #32]
 8001566:	f240 4244 	movw	r2, #1092	@ 0x444
 800156a:	4211      	tst	r1, r2
 800156c:	d103      	bne.n	8001576 <HAL_TIM_Base_Stop_IT+0x26>
 800156e:	681a      	ldr	r2, [r3, #0]
 8001570:	f022 0201 	bic.w	r2, r2, #1
 8001574:	601a      	str	r2, [r3, #0]
  htim->State = HAL_TIM_STATE_READY;
 8001576:	2301      	movs	r3, #1
 8001578:	f880 303d 	strb.w	r3, [r0, #61]	@ 0x3d
}
 800157c:	2000      	movs	r0, #0
 800157e:	4770      	bx	lr

08001580 <HAL_TIM_PWM_Init>:
  if (htim == NULL)
 8001580:	2800      	cmp	r0, #0
 8001582:	d075      	beq.n	8001670 <HAL_TIM_PWM_Init+0xf0>
{
 8001584:	b570      	push	{r4, r5, r6, lr}
  if (htim->State == HAL_TIM_STATE_RESET)
 8001586:	f890 303d 	ldrb.w	r3, [r0, #61]	@ 0x3d
 800158a:	4604      	mov	r4, r0
 800158c:	f003 02ff 	and.w	r2, r3, #255	@ 0xff
 8001590:	2b00      	cmp	r3, #0
 8001592:	d068      	beq.n	8001666 <HAL_TIM_PWM_Init+0xe6>
  TIM_Base_SetConfig(htim->Instance, &htim->Init);
 8001594:	6823      	ldr	r3, [r4, #0]
  if (IS_TIM_COUNTER_MODE_SELECT_INSTANCE(TIMx))
 8001596:	4e37      	ldr	r6, [pc, #220]	@ (8001674 <HAL_TIM_PWM_Init+0xf4>)
  TIMx->PSC = Structure->Prescaler;
 8001598:	6861      	ldr	r1, [r4, #4]
  TIMx->ARR = (uint32_t)Structure->Period ;
 800159a:	68e0      	ldr	r0, [r4, #12]
  MODIFY_REG(tmpcr1, TIM_CR1_ARPE, Structure->AutoReloadPreload);
 800159c:	69a5      	ldr	r5, [r4, #24]
  htim->State = HAL_TIM_STATE_BUSY;
 800159e:	2202      	movs	r2, #2
 80015a0:	f884 203d 	strb.w	r2, [r4, #61]	@ 0x3d
  if (IS_TIM_COUNTER_MODE_SELECT_INSTANCE(TIMx))
 80015a4:	42b3      	cmp	r3, r6
  tmpcr1 = TIMx->CR1;
 80015a6:	681a      	ldr	r2, [r3, #0]
  if (IS_TIM_COUNTER_MODE_SELECT_INSTANCE(TIMx))
 80015a8:	d04c      	beq.n	8001644 <HAL_TIM_PWM_Init+0xc4>
 80015aa:	f1b3 4f80 	cmp.w	r3, #1073741824	@ 0x40000000
 80015ae:	d017      	beq.n	80015e0 <HAL_TIM_PWM_Init+0x60>
 80015b0:	f5a6 3694 	sub.w	r6, r6, #75776	@ 0x12800
 80015b4:	42b3      	cmp	r3, r6
 80015b6:	d013      	beq.n	80015e0 <HAL_TIM_PWM_Init+0x60>
 80015b8:	f506 6680 	add.w	r6, r6, #1024	@ 0x400
 80015bc:	42b3      	cmp	r3, r6
 80015be:	d00f      	beq.n	80015e0 <HAL_TIM_PWM_Init+0x60>
 80015c0:	f506 3696 	add.w	r6, r6, #76800	@ 0x12c00
 80015c4:	42b3      	cmp	r3, r6
 80015c6:	d03d      	beq.n	8001644 <HAL_TIM_PWM_Init+0xc4>
  if (IS_TIM_CLOCK_DIVISION_INSTANCE(TIMx))
 80015c8:	4e2b      	ldr	r6, [pc, #172]	@ (8001678 <HAL_TIM_PWM_Init+0xf8>)
 80015ca:	42b3      	cmp	r3, r6
 80015cc:	d03e      	beq.n	800164c <HAL_TIM_PWM_Init+0xcc>
 80015ce:	f506 6680 	add.w	r6, r6, #1024	@ 0x400
 80015d2:	42b3      	cmp	r3, r6
 80015d4:	d03a      	beq.n	800164c <HAL_TIM_PWM_Init+0xcc>
 80015d6:	f506 6680 	add.w	r6, r6, #1024	@ 0x400
 80015da:	42b3      	cmp	r3, r6
 80015dc:	d108      	bne.n	80015f0 <HAL_TIM_PWM_Init+0x70>
 80015de:	e035      	b.n	800164c <HAL_TIM_PWM_Init+0xcc>
    tmpcr1 |= Structure->CounterMode;
 80015e0:	68a6      	ldr	r6, [r4, #8]
    tmpcr1 &= ~(TIM_CR1_DIR | TIM_CR1_CMS);
 80015e2:	f022 0270 	bic.w	r2, r2, #112	@ 0x70
    tmpcr1 |= Structure->CounterMode;
 80015e6:	4332      	orrs	r2, r6
    tmpcr1 |= (uint32_t)Structure->ClockDivision;
 80015e8:	6926      	ldr	r6, [r4, #16]
    tmpcr1 &= ~TIM_CR1_CKD;
 80015ea:	f422 7240 	bic.w	r2, r2, #768	@ 0x300
    tmpcr1 |= (uint32_t)Structure->ClockDivision;
 80015ee:	4332      	orrs	r2, r6
  MODIFY_REG(tmpcr1, TIM_CR1_ARPE, Structure->AutoReloadPreload);
 80015f0:	f022 0280 	bic.w	r2, r2, #128	@ 0x80
 80015f4:	432a      	orrs	r2, r5
  TIMx->CR1 = tmpcr1;
 80015f6:	601a      	str	r2, [r3, #0]
  TIMx->ARR = (uint32_t)Structure->Period ;
 80015f8:	62d8      	str	r0, [r3, #44]	@ 0x2c
  TIMx->PSC = Structure->Prescaler;
 80015fa:	6299      	str	r1, [r3, #40]	@ 0x28
  TIMx->EGR = TIM_EGR_UG;
 80015fc:	2201      	movs	r2, #1
 80015fe:	615a      	str	r2, [r3, #20]
  if (HAL_IS_BIT_SET(TIMx->SR, TIM_FLAG_UPDATE))
 8001600:	691a      	ldr	r2, [r3, #16]
 8001602:	07d2      	lsls	r2, r2, #31
 8001604:	d503      	bpl.n	800160e <HAL_TIM_PWM_Init+0x8e>
    CLEAR_BIT(TIMx->SR, TIM_FLAG_UPDATE);
 8001606:	691a      	ldr	r2, [r3, #16]
 8001608:	f022 0201 	bic.w	r2, r2, #1
 800160c:	611a      	str	r2, [r3, #16]
  htim->DMABurstState = HAL_DMA_BURST_STATE_READY;
 800160e:	2301      	movs	r3, #1
 8001610:	f884 3048 	strb.w	r3, [r4, #72]	@ 0x48
  TIM_CHANNEL_STATE_SET_ALL(htim, HAL_TIM_CHANNEL_STATE_READY);
 8001614:	f884 303e 	strb.w	r3, [r4, #62]	@ 0x3e
 8001618:	f884 303f 	strb.w	r3, [r4, #63]	@ 0x3f
 800161c:	f884 3040 	strb.w	r3, [r4, #64]	@ 0x40
 8001620:	f884 3041 	strb.w	r3, [r4, #65]	@ 0x41
 8001624:	f884 3042 	strb.w	r3, [r4, #66]	@ 0x42
 8001628:	f884 3043 	strb.w	r3, [r4, #67]	@ 0x43
  TIM_CHANNEL_N_STATE_SET_ALL(htim, HAL_TIM_CHANNEL_STATE_READY);
 800162c:	f884 3044 	strb.w	r3, [r4, #68]	@ 0x44
 8001630:	f884 3045 	strb.w	r3, [r4, #69]	@ 0x45
 8001634:	f884 3046 	strb.w	r3, [r4, #70]	@ 0x46
 8001638:	f884 3047 	strb.w	r3, [r4, #71]	@ 0x47
  htim->State = HAL_TIM_STATE_READY;
 800163c:	f884 303d 	strb.w	r3, [r4, #61]	@ 0x3d
  return HAL_OK;
 8001640:	2000      	movs	r0, #0
}
 8001642:	bd70      	pop	{r4, r5, r6, pc}
    tmpcr1 |= Structure->CounterMode;
 8001644:	68a6      	ldr	r6, [r4, #8]
    tmpcr1 &= ~(TIM_CR1_DIR | TIM_CR1_CMS);
 8001646:	f022 0270 	bic.w	r2, r2, #112	@ 0x70
    tmpcr1 |= Structure->CounterMode;
 800164a:	4332      	orrs	r2, r6
    tmpcr1 |= (uint32_t)Structure->ClockDivision;
 800164c:	6926      	ldr	r6, [r4, #16]
    tmpcr1 &= ~TIM_CR1_CKD;
 800164e:	f422 7240 	bic.w	r2, r2, #768	@ 0x300
    tmpcr1 |= (uint32_t)Structure->ClockDivision;
 8001652:	4332      	orrs	r2, r6
  MODIFY_REG(tmpcr1, TIM_CR1_ARPE, Structure->AutoReloadPreload);
 8001654:	f022 0280 	bic.w	r2, r2, #128	@ 0x80
 8001658:	432a      	orrs	r2, r5
  TIMx->CR1 = tmpcr1;
 800165a:	601a      	str	r2, [r3, #0]
  TIMx->ARR = (uint32_t)Structure->Period ;
 800165c:	62d8      	str	r0, [r3, #44]	@ 0x2c
  TIMx->PSC = Structure->Prescaler;
 800165e:	6299      	str	r1, [r3, #40]	@ 0x28
    TIMx->RCR = Structure->RepetitionCounter;
 8001660:	6962      	ldr	r2, [r4, #20]
 8001662:	631a      	str	r2, [r3, #48]	@ 0x30
 8001664:	e7ca      	b.n	80015fc <HAL_TIM_PWM_Init+0x7c>
    htim->Lock = HAL_UNLOCKED;
 8001666:	f880 203c 	strb.w	r2, [r0, #60]	@ 0x3c
    HAL_TIM_PWM_MspInit(htim);
 800166a:	f001 fe0f 	bl	800328c <HAL_TIM_PWM_MspInit>
 800166e:	e791      	b.n	8001594 <HAL_TIM_PWM_Init+0x14>
    return HAL_ERROR;
 8001670:	2001      	movs	r0, #1
}
 8001672:	4770      	bx	lr
 8001674:	40012c00 	.word	0x40012c00
 8001678:	40014000 	.word	0x40014000

0800167c <HAL_TIM_PWM_Start_IT>:
HAL_StatusTypeDef HAL_TIM_PWM_Start_IT(TIM_HandleTypeDef *htim, uint32_t Channel)
 800167c:	2910      	cmp	r1, #16
 800167e:	d80a      	bhi.n	8001696 <HAL_TIM_PWM_Start_IT+0x1a>
 8001680:	e8df f001 	tbb	[pc, r1]
 8001684:	09090919 	.word	0x09090919
 8001688:	09090953 	.word	0x09090953
 800168c:	09090960 	.word	0x09090960
 8001690:	0909096d 	.word	0x0909096d
 8001694:	7a          	.byte	0x7a
 8001695:	00          	.byte	0x00
 8001696:	f890 3043 	ldrb.w	r3, [r0, #67]	@ 0x43
 800169a:	2b01      	cmp	r3, #1
 800169c:	d173      	bne.n	8001786 <HAL_TIM_PWM_Start_IT+0x10a>
 800169e:	1f0b      	subs	r3, r1, #4
 80016a0:	2b0c      	cmp	r3, #12
 80016a2:	d872      	bhi.n	800178a <HAL_TIM_PWM_Start_IT+0x10e>
 80016a4:	e8df f003 	tbb	[pc, r3]
 80016a8:	71717145 	.word	0x71717145
 80016ac:	71717152 	.word	0x71717152
 80016b0:	7171715f 	.word	0x7171715f
 80016b4:	6c          	.byte	0x6c
 80016b5:	00          	.byte	0x00
 80016b6:	f890 303e 	ldrb.w	r3, [r0, #62]	@ 0x3e
 80016ba:	2b01      	cmp	r3, #1
 80016bc:	d163      	bne.n	8001786 <HAL_TIM_PWM_Start_IT+0x10a>
 80016be:	6803      	ldr	r3, [r0, #0]
 80016c0:	2202      	movs	r2, #2
 80016c2:	f880 203e 	strb.w	r2, [r0, #62]	@ 0x3e
 80016c6:	68da      	ldr	r2, [r3, #12]
 80016c8:	f042 0202 	orr.w	r2, r2, #2
 80016cc:	60da      	str	r2, [r3, #12]
 80016ce:	6a18      	ldr	r0, [r3, #32]
 80016d0:	f001 011f 	and.w	r1, r1, #31
 80016d4:	2201      	movs	r2, #1
 80016d6:	408a      	lsls	r2, r1
 80016d8:	ea20 0002 	bic.w	r0, r0, r2
 80016dc:	6218      	str	r0, [r3, #32]
 80016de:	6a18      	ldr	r0, [r3, #32]
 80016e0:	4935      	ldr	r1, [pc, #212]	@ (80017b8 <HAL_TIM_PWM_Start_IT+0x13c>)
 80016e2:	4302      	orrs	r2, r0
 80016e4:	428b      	cmp	r3, r1
 80016e6:	621a      	str	r2, [r3, #32]
 80016e8:	d053      	beq.n	8001792 <HAL_TIM_PWM_Start_IT+0x116>
 80016ea:	4a34      	ldr	r2, [pc, #208]	@ (80017bc <HAL_TIM_PWM_Start_IT+0x140>)
 80016ec:	4293      	cmp	r3, r2
 80016ee:	d050      	beq.n	8001792 <HAL_TIM_PWM_Start_IT+0x116>
 80016f0:	f502 6240 	add.w	r2, r2, #3072	@ 0xc00
 80016f4:	4293      	cmp	r3, r2
 80016f6:	d04c      	beq.n	8001792 <HAL_TIM_PWM_Start_IT+0x116>
 80016f8:	f502 6280 	add.w	r2, r2, #1024	@ 0x400
 80016fc:	4293      	cmp	r3, r2
 80016fe:	d04d      	beq.n	800179c <HAL_TIM_PWM_Start_IT+0x120>
 8001700:	f502 6280 	add.w	r2, r2, #1024	@ 0x400
 8001704:	4293      	cmp	r3, r2
 8001706:	d049      	beq.n	800179c <HAL_TIM_PWM_Start_IT+0x120>
 8001708:	f1b3 4f80 	cmp.w	r3, #1073741824	@ 0x40000000
 800170c:	d14b      	bne.n	80017a6 <HAL_TIM_PWM_Start_IT+0x12a>
 800170e:	6899      	ldr	r1, [r3, #8]
 8001710:	4a2b      	ldr	r2, [pc, #172]	@ (80017c0 <HAL_TIM_PWM_Start_IT+0x144>)
 8001712:	400a      	ands	r2, r1
 8001714:	2a06      	cmp	r2, #6
 8001716:	d006      	beq.n	8001726 <HAL_TIM_PWM_Start_IT+0xaa>
 8001718:	f5b2 3f80 	cmp.w	r2, #65536	@ 0x10000
 800171c:	d003      	beq.n	8001726 <HAL_TIM_PWM_Start_IT+0xaa>
 800171e:	681a      	ldr	r2, [r3, #0]
 8001720:	f042 0201 	orr.w	r2, r2, #1
 8001724:	601a      	str	r2, [r3, #0]
 8001726:	2000      	movs	r0, #0
 8001728:	4770      	bx	lr
 800172a:	f890 303f 	ldrb.w	r3, [r0, #63]	@ 0x3f
 800172e:	2b01      	cmp	r3, #1
 8001730:	d129      	bne.n	8001786 <HAL_TIM_PWM_Start_IT+0x10a>
 8001732:	6803      	ldr	r3, [r0, #0]
 8001734:	2202      	movs	r2, #2
 8001736:	f880 203f 	strb.w	r2, [r0, #63]	@ 0x3f
 800173a:	68da      	ldr	r2, [r3, #12]
 800173c:	f042 0204 	orr.w	r2, r2, #4
 8001740:	60da      	str	r2, [r3, #12]
 8001742:	e7c4      	b.n	80016ce <HAL_TIM_PWM_Start_IT+0x52>
 8001744:	f890 3040 	ldrb.w	r3, [r0, #64]	@ 0x40
 8001748:	2b01      	cmp	r3, #1
 800174a:	d11c      	bne.n	8001786 <HAL_TIM_PWM_Start_IT+0x10a>
 800174c:	6803      	ldr	r3, [r0, #0]
 800174e:	2202      	movs	r2, #2
 8001750:	f880 2040 	strb.w	r2, [r0, #64]	@ 0x40
 8001754:	68da      	ldr	r2, [r3, #12]
 8001756:	f042 0208 	orr.w	r2, r2, #8
 800175a:	60da      	str	r2, [r3, #12]
 800175c:	e7b7      	b.n	80016ce <HAL_TIM_PWM_Start_IT+0x52>
 800175e:	f890 3041 	ldrb.w	r3, [r0, #65]	@ 0x41
 8001762:	2b01      	cmp	r3, #1
 8001764:	d10f      	bne.n	8001786 <HAL_TIM_PWM_Start_IT+0x10a>
 8001766:	6803      	ldr	r3, [r0, #0]
 8001768:	2202      	movs	r2, #2
 800176a:	f880 2041 	strb.w	r2, [r0, #65]	@ 0x41
 800176e:	68da      	ldr	r2, [r3, #12]
 8001770:	f042 0210 	orr.w	r2, r2, #16
 8001774:	60da      	str	r2, [r3, #12]
 8001776:	e7aa      	b.n	80016ce <HAL_TIM_PWM_Start_IT+0x52>
 8001778:	f890 3042 	ldrb.w	r3, [r0, #66]	@ 0x42
 800177c:	2b01      	cmp	r3, #1
 800177e:	d102      	bne.n	8001786 <HAL_TIM_PWM_Start_IT+0x10a>
 8001780:	2302      	movs	r3, #2
 8001782:	f880 3042 	strb.w	r3, [r0, #66]	@ 0x42
 8001786:	2001      	movs	r0, #1
 8001788:	4770      	bx	lr
 800178a:	2302      	movs	r3, #2
 800178c:	f880 3043 	strb.w	r3, [r0, #67]	@ 0x43
 8001790:	e7f9      	b.n	8001786 <HAL_TIM_PWM_Start_IT+0x10a>
 8001792:	6c5a      	ldr	r2, [r3, #68]	@ 0x44
 8001794:	f442 4200 	orr.w	r2, r2, #32768	@ 0x8000
 8001798:	645a      	str	r2, [r3, #68]	@ 0x44
 800179a:	e7b8      	b.n	800170e <HAL_TIM_PWM_Start_IT+0x92>
 800179c:	6c5a      	ldr	r2, [r3, #68]	@ 0x44
 800179e:	f442 4200 	orr.w	r2, r2, #32768	@ 0x8000
 80017a2:	645a      	str	r2, [r3, #68]	@ 0x44
 80017a4:	e7bb      	b.n	800171e <HAL_TIM_PWM_Start_IT+0xa2>
 80017a6:	4a07      	ldr	r2, [pc, #28]	@ (80017c4 <HAL_TIM_PWM_Start_IT+0x148>)
 80017a8:	4293      	cmp	r3, r2
 80017aa:	d0b0      	beq.n	800170e <HAL_TIM_PWM_Start_IT+0x92>
 80017ac:	f502 6280 	add.w	r2, r2, #1024	@ 0x400
 80017b0:	4293      	cmp	r3, r2
 80017b2:	d0ac      	beq.n	800170e <HAL_TIM_PWM_Start_IT+0x92>
 80017b4:	e7b3      	b.n	800171e <HAL_TIM_PWM_Start_IT+0xa2>
 80017b6:	bf00      	nop
 80017b8:	40012c00 	.word	0x40012c00
 80017bc:	40013400 	.word	0x40013400
 80017c0:	00010007 	.word	0x00010007
 80017c4:	40000400 	.word	0x40000400

080017c8 <HAL_TIM_PWM_Stop_IT>:
HAL_StatusTypeDef HAL_TIM_PWM_Stop_IT(TIM_HandleTypeDef *htim, uint32_t Channel)
 80017c8:	290c      	cmp	r1, #12
 80017ca:	d808      	bhi.n	80017de <HAL_TIM_PWM_Stop_IT+0x16>
 80017cc:	e8df f001 	tbb	[pc, r1]
 80017d0:	0707074e 	.word	0x0707074e
 80017d4:	07070748 	.word	0x07070748
 80017d8:	07070742 	.word	0x07070742
 80017dc:	09          	.byte	0x09
 80017dd:	00          	.byte	0x00
 80017de:	2001      	movs	r0, #1
 80017e0:	4770      	bx	lr
 80017e2:	6803      	ldr	r3, [r0, #0]
 80017e4:	68da      	ldr	r2, [r3, #12]
 80017e6:	f022 0210 	bic.w	r2, r2, #16
 80017ea:	60da      	str	r2, [r3, #12]
 80017ec:	6a1a      	ldr	r2, [r3, #32]
 80017ee:	f04f 0c01 	mov.w	ip, #1
 80017f2:	fa0c fc01 	lsl.w	ip, ip, r1
 80017f6:	ea22 020c 	bic.w	r2, r2, ip
 80017fa:	b410      	push	{r4}
 80017fc:	621a      	str	r2, [r3, #32]
 80017fe:	4a2d      	ldr	r2, [pc, #180]	@ (80018b4 <HAL_TIM_PWM_Stop_IT+0xec>)
 8001800:	6a1c      	ldr	r4, [r3, #32]
 8001802:	621c      	str	r4, [r3, #32]
 8001804:	4293      	cmp	r3, r2
 8001806:	d037      	beq.n	8001878 <HAL_TIM_PWM_Stop_IT+0xb0>
 8001808:	f502 6200 	add.w	r2, r2, #2048	@ 0x800
 800180c:	4293      	cmp	r3, r2
 800180e:	d033      	beq.n	8001878 <HAL_TIM_PWM_Stop_IT+0xb0>
 8001810:	f502 6240 	add.w	r2, r2, #3072	@ 0xc00
 8001814:	4293      	cmp	r3, r2
 8001816:	d02f      	beq.n	8001878 <HAL_TIM_PWM_Stop_IT+0xb0>
 8001818:	f502 6280 	add.w	r2, r2, #1024	@ 0x400
 800181c:	4293      	cmp	r3, r2
 800181e:	d02b      	beq.n	8001878 <HAL_TIM_PWM_Stop_IT+0xb0>
 8001820:	f502 6280 	add.w	r2, r2, #1024	@ 0x400
 8001824:	4293      	cmp	r3, r2
 8001826:	d027      	beq.n	8001878 <HAL_TIM_PWM_Stop_IT+0xb0>
 8001828:	6a1c      	ldr	r4, [r3, #32]
 800182a:	f241 1211 	movw	r2, #4369	@ 0x1111
 800182e:	4214      	tst	r4, r2
 8001830:	d108      	bne.n	8001844 <HAL_TIM_PWM_Stop_IT+0x7c>
 8001832:	6a1c      	ldr	r4, [r3, #32]
 8001834:	f240 4244 	movw	r2, #1092	@ 0x444
 8001838:	4214      	tst	r4, r2
 800183a:	d103      	bne.n	8001844 <HAL_TIM_PWM_Stop_IT+0x7c>
 800183c:	681a      	ldr	r2, [r3, #0]
 800183e:	f022 0201 	bic.w	r2, r2, #1
 8001842:	601a      	str	r2, [r3, #0]
 8001844:	2301      	movs	r3, #1
 8001846:	bb31      	cbnz	r1, 8001896 <HAL_TIM_PWM_Stop_IT+0xce>
 8001848:	f880 303e 	strb.w	r3, [r0, #62]	@ 0x3e
 800184c:	2000      	movs	r0, #0
 800184e:	f85d 4b04 	ldr.w	r4, [sp], #4
 8001852:	4770      	bx	lr
 8001854:	6803      	ldr	r3, [r0, #0]
 8001856:	68da      	ldr	r2, [r3, #12]
 8001858:	f022 0208 	bic.w	r2, r2, #8
 800185c:	60da      	str	r2, [r3, #12]
 800185e:	e7c5      	b.n	80017ec <HAL_TIM_PWM_Stop_IT+0x24>
 8001860:	6803      	ldr	r3, [r0, #0]
 8001862:	68da      	ldr	r2, [r3, #12]
 8001864:	f022 0204 	bic.w	r2, r2, #4
 8001868:	60da      	str	r2, [r3, #12]
 800186a:	e7bf      	b.n	80017ec <HAL_TIM_PWM_Stop_IT+0x24>
 800186c:	6803      	ldr	r3, [r0, #0]
 800186e:	68da      	ldr	r2, [r3, #12]
 8001870:	f022 0202 	bic.w	r2, r2, #2
 8001874:	60da      	str	r2, [r3, #12]
 8001876:	e7b9      	b.n	80017ec <HAL_TIM_PWM_Stop_IT+0x24>
 8001878:	6a1c      	ldr	r4, [r3, #32]
 800187a:	f241 1211 	movw	r2, #4369	@ 0x1111
 800187e:	4214      	tst	r4, r2
 8001880:	d1d2      	bne.n	8001828 <HAL_TIM_PWM_Stop_IT+0x60>
 8001882:	6a1c      	ldr	r4, [r3, #32]
 8001884:	f240 4244 	movw	r2, #1092	@ 0x444
 8001888:	4214      	tst	r4, r2
 800188a:	d1cd      	bne.n	8001828 <HAL_TIM_PWM_Stop_IT+0x60>
 800188c:	6c5a      	ldr	r2, [r3, #68]	@ 0x44
 800188e:	f422 4200 	bic.w	r2, r2, #32768	@ 0x8000
 8001892:	645a      	str	r2, [r3, #68]	@ 0x44
 8001894:	e7c8      	b.n	8001828 <HAL_TIM_PWM_Stop_IT+0x60>
 8001896:	2904      	cmp	r1, #4
 8001898:	d009      	beq.n	80018ae <HAL_TIM_PWM_Stop_IT+0xe6>
 800189a:	2908      	cmp	r1, #8
 800189c:	bf0c      	ite	eq
 800189e:	f880 3040 	strbeq.w	r3, [r0, #64]	@ 0x40
 80018a2:	f880 3041 	strbne.w	r3, [r0, #65]	@ 0x41
 80018a6:	f85d 4b04 	ldr.w	r4, [sp], #4
 80018aa:	2000      	movs	r0, #0
 80018ac:	4770      	bx	lr
 80018ae:	f880 303f 	strb.w	r3, [r0, #63]	@ 0x3f
 80018b2:	e7cb      	b.n	800184c <HAL_TIM_PWM_Stop_IT+0x84>
 80018b4:	40012c00 	.word	0x40012c00

080018b8 <HAL_TIM_PeriodElapsedCallback>:
__weak void HAL_TIM_PeriodElapsedCallback(TIM_HandleTypeDef *htim)
 80018b8:	4770      	bx	lr
 80018ba:	bf00      	nop

080018bc <HAL_TIM_OC_DelayElapsedCallback>:
__weak void HAL_TIM_OC_DelayElapsedCallback(TIM_HandleTypeDef *htim)
 80018bc:	4770      	bx	lr
 80018be:	bf00      	nop

080018c0 <HAL_TIM_IC_CaptureCallback>:
__weak void HAL_TIM_IC_CaptureCallback(TIM_HandleTypeDef *htim)
 80018c0:	4770      	bx	lr
 80018c2:	bf00      	nop

080018c4 <HAL_TIM_PWM_PulseFinishedCallback>:
__weak void HAL_TIM_PWM_PulseFinishedCallback(TIM_HandleTypeDef *htim)
 80018c4:	4770      	bx	lr
 80018c6:	bf00      	nop

080018c8 <HAL_TIM_TriggerCallback>:
__weak void HAL_TIM_TriggerCallback(TIM_HandleTypeDef *htim)
 80018c8:	4770      	bx	lr
 80018ca:	bf00      	nop

080018cc <HAL_TIM_IRQHandler>:
  uint32_t itsource = htim->Instance->DIER;
 80018cc:	6803      	ldr	r3, [r0, #0]
{
 80018ce:	b570      	push	{r4, r5, r6, lr}
  uint32_t itsource = htim->Instance->DIER;
 80018d0:	68de      	ldr	r6, [r3, #12]
  uint32_t itflag   = htim->Instance->SR;
 80018d2:	691d      	ldr	r5, [r3, #16]
  if ((itflag & (TIM_FLAG_CC1)) == (TIM_FLAG_CC1))
 80018d4:	07a9      	lsls	r1, r5, #30
{
 80018d6:	4604      	mov	r4, r0
  if ((itflag & (TIM_FLAG_CC1)) == (TIM_FLAG_CC1))
 80018d8:	d501      	bpl.n	80018de <HAL_TIM_IRQHandler+0x12>
    if ((itsource & (TIM_IT_CC1)) == (TIM_IT_CC1))
 80018da:	07b2      	lsls	r2, r6, #30
 80018dc:	d451      	bmi.n	8001982 <HAL_TIM_IRQHandler+0xb6>
  if ((itflag & (TIM_FLAG_CC2)) == (TIM_FLAG_CC2))
 80018de:	076a      	lsls	r2, r5, #29
 80018e0:	d501      	bpl.n	80018e6 <HAL_TIM_IRQHandler+0x1a>
    if ((itsource & (TIM_IT_CC2)) == (TIM_IT_CC2))
 80018e2:	0773      	lsls	r3, r6, #29
 80018e4:	d43a      	bmi.n	800195c <HAL_TIM_IRQHandler+0x90>
  if ((itflag & (TIM_FLAG_CC3)) == (TIM_FLAG_CC3))
 80018e6:	0728      	lsls	r0, r5, #28
 80018e8:	d501      	bpl.n	80018ee <HAL_TIM_IRQHandler+0x22>
    if ((itsource & (TIM_IT_CC3)) == (TIM_IT_CC3))
 80018ea:	0731      	lsls	r1, r6, #28
 80018ec:	d424      	bmi.n	8001938 <HAL_TIM_IRQHandler+0x6c>
  if ((itflag & (TIM_FLAG_CC4)) == (TIM_FLAG_CC4))
 80018ee:	06eb      	lsls	r3, r5, #27
 80018f0:	d501      	bpl.n	80018f6 <HAL_TIM_IRQHandler+0x2a>
    if ((itsource & (TIM_IT_CC4)) == (TIM_IT_CC4))
 80018f2:	06f0      	lsls	r0, r6, #27
 80018f4:	d410      	bmi.n	8001918 <HAL_TIM_IRQHandler+0x4c>
  if ((itflag & (TIM_FLAG_UPDATE)) == (TIM_FLAG_UPDATE))
 80018f6:	07e9      	lsls	r1, r5, #31
 80018f8:	d501      	bpl.n	80018fe <HAL_TIM_IRQHandler+0x32>
    if ((itsource & (TIM_IT_UPDATE)) == (TIM_IT_UPDATE))
 80018fa:	07f2      	lsls	r2, r6, #31
 80018fc:	d463      	bmi.n	80019c6 <HAL_TIM_IRQHandler+0xfa>
  if ((itflag & (TIM_FLAG_BREAK)) == (TIM_FLAG_BREAK))
 80018fe:	062b      	lsls	r3, r5, #24
 8001900:	d54c      	bpl.n	800199c <HAL_TIM_IRQHandler+0xd0>
    if ((itsource & (TIM_IT_BREAK)) == (TIM_IT_BREAK))
 8001902:	0630      	lsls	r0, r6, #24
 8001904:	d467      	bmi.n	80019d6 <HAL_TIM_IRQHandler+0x10a>
  if ((itflag & (TIM_FLAG_TRIGGER)) == (TIM_FLAG_TRIGGER))
 8001906:	0668      	lsls	r0, r5, #25
 8001908:	d501      	bpl.n	800190e <HAL_TIM_IRQHandler+0x42>
    if ((itsource & (TIM_IT_TRIGGER)) == (TIM_IT_TRIGGER))
 800190a:	0671      	lsls	r1, r6, #25
 800190c:	d46d      	bmi.n	80019ea <HAL_TIM_IRQHandler+0x11e>
  if ((itflag & (TIM_FLAG_COM)) == (TIM_FLAG_COM))
 800190e:	06aa      	lsls	r2, r5, #26
 8001910:	d501      	bpl.n	8001916 <HAL_TIM_IRQHandler+0x4a>
    if ((itsource & (TIM_IT_COM)) == (TIM_IT_COM))
 8001912:	06b3      	lsls	r3, r6, #26
 8001914:	d44e      	bmi.n	80019b4 <HAL_TIM_IRQHandler+0xe8>
}
 8001916:	bd70      	pop	{r4, r5, r6, pc}
      __HAL_TIM_CLEAR_FLAG(htim, TIM_FLAG_CC4);
 8001918:	6823      	ldr	r3, [r4, #0]
 800191a:	f06f 0210 	mvn.w	r2, #16
 800191e:	611a      	str	r2, [r3, #16]
      htim->Channel = HAL_TIM_ACTIVE_CHANNEL_4;
 8001920:	2208      	movs	r2, #8
 8001922:	7722      	strb	r2, [r4, #28]
      if ((htim->Instance->CCMR2 & TIM_CCMR2_CC4S) != 0x00U)
 8001924:	69db      	ldr	r3, [r3, #28]
 8001926:	f413 7f40 	tst.w	r3, #768	@ 0x300
        HAL_TIM_IC_CaptureCallback(htim);
 800192a:	4620      	mov	r0, r4
      if ((htim->Instance->CCMR2 & TIM_CCMR2_CC4S) != 0x00U)
 800192c:	d071      	beq.n	8001a12 <HAL_TIM_IRQHandler+0x146>
        HAL_TIM_IC_CaptureCallback(htim);
 800192e:	f7ff ffc7 	bl	80018c0 <HAL_TIM_IC_CaptureCallback>
      htim->Channel = HAL_TIM_ACTIVE_CHANNEL_CLEARED;
 8001932:	2300      	movs	r3, #0
 8001934:	7723      	strb	r3, [r4, #28]
 8001936:	e7de      	b.n	80018f6 <HAL_TIM_IRQHandler+0x2a>
      __HAL_TIM_CLEAR_FLAG(htim, TIM_FLAG_CC3);
 8001938:	6823      	ldr	r3, [r4, #0]
 800193a:	f06f 0208 	mvn.w	r2, #8
 800193e:	611a      	str	r2, [r3, #16]
      htim->Channel = HAL_TIM_ACTIVE_CHANNEL_3;
 8001940:	2204      	movs	r2, #4
 8001942:	7722      	strb	r2, [r4, #28]
      if ((htim->Instance->CCMR2 & TIM_CCMR2_CC3S) != 0x00U)
 8001944:	69db      	ldr	r3, [r3, #28]
 8001946:	079a      	lsls	r2, r3, #30
        HAL_TIM_IC_CaptureCallback(htim);
 8001948:	4620      	mov	r0, r4
      if ((htim->Instance->CCMR2 & TIM_CCMR2_CC3S) != 0x00U)
 800194a:	d15f      	bne.n	8001a0c <HAL_TIM_IRQHandler+0x140>
        HAL_TIM_OC_DelayElapsedCallback(htim);
 800194c:	f7ff ffb6 	bl	80018bc <HAL_TIM_OC_DelayElapsedCallback>
        HAL_TIM_PWM_PulseFinishedCallback(htim);
 8001950:	4620      	mov	r0, r4
 8001952:	f7ff ffb7 	bl	80018c4 <HAL_TIM_PWM_PulseFinishedCallback>
      htim->Channel = HAL_TIM_ACTIVE_CHANNEL_CLEARED;
 8001956:	2300      	movs	r3, #0
 8001958:	7723      	strb	r3, [r4, #28]
 800195a:	e7c8      	b.n	80018ee <HAL_TIM_IRQHandler+0x22>
      __HAL_TIM_CLEAR_FLAG(htim, TIM_FLAG_CC2);
 800195c:	6823      	ldr	r3, [r4, #0]
 800195e:	f06f 0204 	mvn.w	r2, #4
 8001962:	611a      	str	r2, [r3, #16]
      htim->Channel = HAL_TIM_ACTIVE_CHANNEL_2;
 8001964:	2202      	movs	r2, #2
 8001966:	7722      	strb	r2, [r4, #28]
      if ((htim->Instance->CCMR1 & TIM_CCMR1_CC2S) != 0x00U)
 8001968:	699b      	ldr	r3, [r3, #24]
 800196a:	f413 7f40 	tst.w	r3, #768	@ 0x300
        HAL_TIM_IC_CaptureCallback(htim);
 800196e:	4620      	mov	r0, r4
      if ((htim->Instance->CCMR1 & TIM_CCMR1_CC2S) != 0x00U)
 8001970:	d149      	bne.n	8001a06 <HAL_TIM_IRQHandler+0x13a>
        HAL_TIM_OC_DelayElapsedCallback(htim);
 8001972:	f7ff ffa3 	bl	80018bc <HAL_TIM_OC_DelayElapsedCallback>
        HAL_TIM_PWM_PulseFinishedCallback(htim);
 8001976:	4620      	mov	r0, r4
 8001978:	f7ff ffa4 	bl	80018c4 <HAL_TIM_PWM_PulseFinishedCallback>
      htim->Channel = HAL_TIM_ACTIVE_CHANNEL_CLEARED;
 800197c:	2300      	movs	r3, #0
 800197e:	7723      	strb	r3, [r4, #28]
 8001980:	e7b1      	b.n	80018e6 <HAL_TIM_IRQHandler+0x1a>
        __HAL_TIM_CLEAR_FLAG(htim, TIM_FLAG_CC1);
 8001982:	f06f 0202 	mvn.w	r2, #2
 8001986:	611a      	str	r2, [r3, #16]
        htim->Channel = HAL_TIM_ACTIVE_CHANNEL_1;
 8001988:	2201      	movs	r2, #1
 800198a:	7702      	strb	r2, [r0, #28]
        if ((htim->Instance->CCMR1 & TIM_CCMR1_CC1S) != 0x00U)
 800198c:	699b      	ldr	r3, [r3, #24]
 800198e:	0799      	lsls	r1, r3, #30
 8001990:	d033      	beq.n	80019fa <HAL_TIM_IRQHandler+0x12e>
          HAL_TIM_IC_CaptureCallback(htim);
 8001992:	f7ff ff95 	bl	80018c0 <HAL_TIM_IC_CaptureCallback>
        htim->Channel = HAL_TIM_ACTIVE_CHANNEL_CLEARED;
 8001996:	2300      	movs	r3, #0
 8001998:	7723      	strb	r3, [r4, #28]
 800199a:	e7a0      	b.n	80018de <HAL_TIM_IRQHandler+0x12>
  if ((itflag & (TIM_FLAG_BREAK2)) == (TIM_FLAG_BREAK2))
 800199c:	05ea      	lsls	r2, r5, #23
 800199e:	d5b2      	bpl.n	8001906 <HAL_TIM_IRQHandler+0x3a>
    if ((itsource & (TIM_IT_BREAK)) == (TIM_IT_BREAK))
 80019a0:	0633      	lsls	r3, r6, #24
 80019a2:	d5b0      	bpl.n	8001906 <HAL_TIM_IRQHandler+0x3a>
      __HAL_TIM_CLEAR_FLAG(htim, TIM_FLAG_BREAK2);
 80019a4:	6823      	ldr	r3, [r4, #0]
 80019a6:	f46f 7280 	mvn.w	r2, #256	@ 0x100
 80019aa:	611a      	str	r2, [r3, #16]
      HAL_TIMEx_Break2Callback(htim);
 80019ac:	4620      	mov	r0, r4
 80019ae:	f000 fa2d 	bl	8001e0c <HAL_TIMEx_Break2Callback>
 80019b2:	e7a8      	b.n	8001906 <HAL_TIM_IRQHandler+0x3a>
      __HAL_TIM_CLEAR_FLAG(htim, TIM_FLAG_COM);
 80019b4:	6823      	ldr	r3, [r4, #0]
 80019b6:	f06f 0220 	mvn.w	r2, #32
      HAL_TIMEx_CommutCallback(htim);
 80019ba:	4620      	mov	r0, r4
      __HAL_TIM_CLEAR_FLAG(htim, TIM_FLAG_COM);
 80019bc:	611a      	str	r2, [r3, #16]
}
 80019be:	e8bd 4070 	ldmia.w	sp!, {r4, r5, r6, lr}
      HAL_TIMEx_CommutCallback(htim);
 80019c2:	f000 ba1f 	b.w	8001e04 <HAL_TIMEx_CommutCallback>
      __HAL_TIM_CLEAR_FLAG(htim, TIM_FLAG_UPDATE);
 80019c6:	6823      	ldr	r3, [r4, #0]
 80019c8:	f06f 0201 	mvn.w	r2, #1
 80019cc:	611a      	str	r2, [r3, #16]
      HAL_TIM_PeriodElapsedCallback(htim);
 80019ce:	4620      	mov	r0, r4
 80019d0:	f7ff ff72 	bl	80018b8 <HAL_TIM_PeriodElapsedCallback>
 80019d4:	e793      	b.n	80018fe <HAL_TIM_IRQHandler+0x32>
      __HAL_TIM_CLEAR_FLAG(htim, TIM_FLAG_BREAK);
 80019d6:	6823      	ldr	r3, [r4, #0]
 80019d8:	f06f 0280 	mvn.w	r2, #128	@ 0x80
 80019dc:	611a      	str	r2, [r3, #16]
      HAL_TIMEx_BreakCallback(htim);
 80019de:	4620      	mov	r0, r4
 80019e0:	f000 fa12 	bl	8001e08 <HAL_TIMEx_BreakCallback>
  if ((itflag & (TIM_FLAG_BREAK2)) == (TIM_FLAG_BREAK2))
 80019e4:	05e9      	lsls	r1, r5, #23
 80019e6:	d58e      	bpl.n	8001906 <HAL_TIM_IRQHandler+0x3a>
 80019e8:	e7dc      	b.n	80019a4 <HAL_TIM_IRQHandler+0xd8>
      __HAL_TIM_CLEAR_FLAG(htim, TIM_FLAG_TRIGGER);
 80019ea:	6823      	ldr	r3, [r4, #0]
 80019ec:	f06f 0240 	mvn.w	r2, #64	@ 0x40
 80019f0:	611a      	str	r2, [r3, #16]
      HAL_TIM_TriggerCallback(htim);
 80019f2:	4620      	mov	r0, r4
 80019f4:	f7ff ff68 	bl	80018c8 <HAL_TIM_TriggerCallback>
 80019f8:	e789      	b.n	800190e <HAL_TIM_IRQHandler+0x42>
          HAL_TIM_OC_DelayElapsedCallback(htim);
 80019fa:	f7ff ff5f 	bl	80018bc <HAL_TIM_OC_DelayElapsedCallback>
          HAL_TIM_PWM_PulseFinishedCallback(htim);
 80019fe:	4620      	mov	r0, r4
 8001a00:	f7ff ff60 	bl	80018c4 <HAL_TIM_PWM_PulseFinishedCallback>
 8001a04:	e7c7      	b.n	8001996 <HAL_TIM_IRQHandler+0xca>
        HAL_TIM_IC_CaptureCallback(htim);
 8001a06:	f7ff ff5b 	bl	80018c0 <HAL_TIM_IC_CaptureCallback>
 8001a0a:	e7b7      	b.n	800197c <HAL_TIM_IRQHandler+0xb0>
        HAL_TIM_IC_CaptureCallback(htim);
 8001a0c:	f7ff ff58 	bl	80018c0 <HAL_TIM_IC_CaptureCallback>
 8001a10:	e7a1      	b.n	8001956 <HAL_TIM_IRQHandler+0x8a>
        HAL_TIM_OC_DelayElapsedCallback(htim);
 8001a12:	f7ff ff53 	bl	80018bc <HAL_TIM_OC_DelayElapsedCallback>
        HAL_TIM_PWM_PulseFinishedCallback(htim);
 8001a16:	4620      	mov	r0, r4
 8001a18:	f7ff ff54 	bl	80018c4 <HAL_TIM_PWM_PulseFinishedCallback>
 8001a1c:	e789      	b.n	8001932 <HAL_TIM_IRQHandler+0x66>
 8001a1e:	bf00      	nop

08001a20 <TIM_OC2_SetConfig>:
  tmpccer = TIMx->CCER;
 8001a20:	6a03      	ldr	r3, [r0, #32]
  TIMx->CCER &= ~TIM_CCER_CC2E;
 8001a22:	6a02      	ldr	r2, [r0, #32]
 8001a24:	f022 0210 	bic.w	r2, r2, #16
{
 8001a28:	b470      	push	{r4, r5, r6}
  TIMx->CCER &= ~TIM_CCER_CC2E;
 8001a2a:	6202      	str	r2, [r0, #32]
  tmpcr2 =  TIMx->CR2;
 8001a2c:	6844      	ldr	r4, [r0, #4]
  tmpccmrx = TIMx->CCMR1;
 8001a2e:	6982      	ldr	r2, [r0, #24]
  tmpccmrx |= (OC_Config->OCMode << 8U);
 8001a30:	680d      	ldr	r5, [r1, #0]
  tmpccmrx &= ~TIM_CCMR1_CC2S;
 8001a32:	f022 7280 	bic.w	r2, r2, #16777216	@ 0x1000000
 8001a36:	f422 42e6 	bic.w	r2, r2, #29440	@ 0x7300
  tmpccmrx |= (OC_Config->OCMode << 8U);
 8001a3a:	ea42 2205 	orr.w	r2, r2, r5, lsl #8
  tmpccer |= (OC_Config->OCPolarity << 4U);
 8001a3e:	688d      	ldr	r5, [r1, #8]
  tmpccer &= ~TIM_CCER_CC2P;
 8001a40:	f023 0320 	bic.w	r3, r3, #32
  tmpccer |= (OC_Config->OCPolarity << 4U);
 8001a44:	ea43 1305 	orr.w	r3, r3, r5, lsl #4
  if (IS_TIM_CCXN_INSTANCE(TIMx, TIM_CHANNEL_2))
 8001a48:	4d14      	ldr	r5, [pc, #80]	@ (8001a9c <TIM_OC2_SetConfig+0x7c>)
 8001a4a:	42a8      	cmp	r0, r5
 8001a4c:	d00f      	beq.n	8001a6e <TIM_OC2_SetConfig+0x4e>
 8001a4e:	f505 6500 	add.w	r5, r5, #2048	@ 0x800
 8001a52:	42a8      	cmp	r0, r5
 8001a54:	d00b      	beq.n	8001a6e <TIM_OC2_SetConfig+0x4e>
  if (IS_TIM_BREAK_INSTANCE(TIMx))
 8001a56:	f505 6540 	add.w	r5, r5, #3072	@ 0xc00
 8001a5a:	42a8      	cmp	r0, r5
 8001a5c:	d00e      	beq.n	8001a7c <TIM_OC2_SetConfig+0x5c>
 8001a5e:	4d10      	ldr	r5, [pc, #64]	@ (8001aa0 <TIM_OC2_SetConfig+0x80>)
 8001a60:	42a8      	cmp	r0, r5
 8001a62:	d00b      	beq.n	8001a7c <TIM_OC2_SetConfig+0x5c>
 8001a64:	f505 6580 	add.w	r5, r5, #1024	@ 0x400
 8001a68:	42a8      	cmp	r0, r5
 8001a6a:	d10f      	bne.n	8001a8c <TIM_OC2_SetConfig+0x6c>
 8001a6c:	e006      	b.n	8001a7c <TIM_OC2_SetConfig+0x5c>
    tmpccer |= (OC_Config->OCNPolarity << 4U);
 8001a6e:	68cd      	ldr	r5, [r1, #12]
    tmpccer &= ~TIM_CCER_CC2NP;
 8001a70:	f023 0380 	bic.w	r3, r3, #128	@ 0x80
    tmpccer |= (OC_Config->OCNPolarity << 4U);
 8001a74:	ea43 1305 	orr.w	r3, r3, r5, lsl #4
    tmpccer &= ~TIM_CCER_CC2NE;
 8001a78:	f023 0340 	bic.w	r3, r3, #64	@ 0x40
    tmpcr2 |= (OC_Config->OCNIdleState << 2U);
 8001a7c:	e9d1 6505 	ldrd	r6, r5, [r1, #20]
    tmpcr2 &= ~TIM_CR2_OIS2N;
 8001a80:	f424 6440 	bic.w	r4, r4, #3072	@ 0xc00
    tmpcr2 |= (OC_Config->OCNIdleState << 2U);
 8001a84:	ea46 0c05 	orr.w	ip, r6, r5
 8001a88:	ea44 048c 	orr.w	r4, r4, ip, lsl #2
  TIMx->CCR2 = OC_Config->Pulse;
 8001a8c:	6849      	ldr	r1, [r1, #4]
  TIMx->CR2 = tmpcr2;
 8001a8e:	6044      	str	r4, [r0, #4]
  TIMx->CCMR1 = tmpccmrx;
 8001a90:	6182      	str	r2, [r0, #24]
}
 8001a92:	bc70      	pop	{r4, r5, r6}
  TIMx->CCR2 = OC_Config->Pulse;
 8001a94:	6381      	str	r1, [r0, #56]	@ 0x38
  TIMx->CCER = tmpccer;
 8001a96:	6203      	str	r3, [r0, #32]
}
 8001a98:	4770      	bx	lr
 8001a9a:	bf00      	nop
 8001a9c:	40012c00 	.word	0x40012c00
 8001aa0:	40014400 	.word	0x40014400

08001aa4 <HAL_TIM_PWM_ConfigChannel>:
  __HAL_LOCK(htim);
 8001aa4:	f890 303c 	ldrb.w	r3, [r0, #60]	@ 0x3c
 8001aa8:	2b01      	cmp	r3, #1
 8001aaa:	f000 8114 	beq.w	8001cd6 <HAL_TIM_PWM_ConfigChannel+0x232>
 8001aae:	2301      	movs	r3, #1
{
 8001ab0:	b570      	push	{r4, r5, r6, lr}
 8001ab2:	4604      	mov	r4, r0
 8001ab4:	460d      	mov	r5, r1
  __HAL_LOCK(htim);
 8001ab6:	f880 303c 	strb.w	r3, [r0, #60]	@ 0x3c
  switch (Channel)
 8001aba:	2a14      	cmp	r2, #20
 8001abc:	d816      	bhi.n	8001aec <HAL_TIM_PWM_ConfigChannel+0x48>
 8001abe:	e8df f012 	tbh	[pc, r2, lsl #1]
 8001ac2:	0059      	.short	0x0059
 8001ac4:	00150015 	.word	0x00150015
 8001ac8:	006d0015 	.word	0x006d0015
 8001acc:	00150015 	.word	0x00150015
 8001ad0:	007e0015 	.word	0x007e0015
 8001ad4:	00150015 	.word	0x00150015
 8001ad8:	008e0015 	.word	0x008e0015
 8001adc:	00150015 	.word	0x00150015
 8001ae0:	00cd0015 	.word	0x00cd0015
 8001ae4:	00150015 	.word	0x00150015
 8001ae8:	001a0015 	.word	0x001a0015
  __HAL_UNLOCK(htim);
 8001aec:	2300      	movs	r3, #0
 8001aee:	f884 303c 	strb.w	r3, [r4, #60]	@ 0x3c
  switch (Channel)
 8001af2:	2001      	movs	r0, #1
}
 8001af4:	bd70      	pop	{r4, r5, r6, pc}
      TIM_OC6_SetConfig(htim->Instance, sConfig);
 8001af6:	6803      	ldr	r3, [r0, #0]
  tmpccmrx = TIMx->CCMR3;

  /* Reset the Output Compare Mode Bits */
  tmpccmrx &= ~(TIM_CCMR3_OC6M);
  /* Select the Output Compare Mode */
  tmpccmrx |= (OC_Config->OCMode << 8U);
 8001af8:	682e      	ldr	r6, [r5, #0]
  tmpccer = TIMx->CCER;
 8001afa:	6a1a      	ldr	r2, [r3, #32]
  TIMx->CCER &= ~TIM_CCER_CC6E;
 8001afc:	6a19      	ldr	r1, [r3, #32]
 8001afe:	f421 1180 	bic.w	r1, r1, #1048576	@ 0x100000
 8001b02:	6219      	str	r1, [r3, #32]
  tmpcr2 =  TIMx->CR2;
 8001b04:	6858      	ldr	r0, [r3, #4]
  tmpccmrx = TIMx->CCMR3;
 8001b06:	6d59      	ldr	r1, [r3, #84]	@ 0x54
  tmpccmrx &= ~(TIM_CCMR3_OC6M);
 8001b08:	f021 7180 	bic.w	r1, r1, #16777216	@ 0x1000000
 8001b0c:	f421 41e0 	bic.w	r1, r1, #28672	@ 0x7000
  tmpccmrx |= (OC_Config->OCMode << 8U);
 8001b10:	ea41 2106 	orr.w	r1, r1, r6, lsl #8

  /* Reset the Output Polarity level */
  tmpccer &= (uint32_t)~TIM_CCER_CC6P;
  /* Set the Output Compare Polarity */
  tmpccer |= (OC_Config->OCPolarity << 20U);
 8001b14:	68ae      	ldr	r6, [r5, #8]
  tmpccer &= (uint32_t)~TIM_CCER_CC6P;
 8001b16:	f422 1200 	bic.w	r2, r2, #2097152	@ 0x200000
  tmpccer |= (OC_Config->OCPolarity << 20U);
 8001b1a:	ea42 5206 	orr.w	r2, r2, r6, lsl #20

  if (IS_TIM_BREAK_INSTANCE(TIMx))
 8001b1e:	4e6f      	ldr	r6, [pc, #444]	@ (8001cdc <HAL_TIM_PWM_ConfigChannel+0x238>)
 8001b20:	42b3      	cmp	r3, r6
 8001b22:	d00f      	beq.n	8001b44 <HAL_TIM_PWM_ConfigChannel+0xa0>
 8001b24:	f506 6600 	add.w	r6, r6, #2048	@ 0x800
 8001b28:	42b3      	cmp	r3, r6
 8001b2a:	d00b      	beq.n	8001b44 <HAL_TIM_PWM_ConfigChannel+0xa0>
 8001b2c:	f506 6640 	add.w	r6, r6, #3072	@ 0xc00
 8001b30:	42b3      	cmp	r3, r6
 8001b32:	d007      	beq.n	8001b44 <HAL_TIM_PWM_ConfigChannel+0xa0>
 8001b34:	f506 6680 	add.w	r6, r6, #1024	@ 0x400
 8001b38:	42b3      	cmp	r3, r6
 8001b3a:	d003      	beq.n	8001b44 <HAL_TIM_PWM_ConfigChannel+0xa0>
 8001b3c:	f506 6680 	add.w	r6, r6, #1024	@ 0x400
 8001b40:	42b3      	cmp	r3, r6
 8001b42:	d104      	bne.n	8001b4e <HAL_TIM_PWM_ConfigChannel+0xaa>
  {
    /* Reset the Output Compare IDLE State */
    tmpcr2 &= ~TIM_CR2_OIS6;
    /* Set the Output Idle state */
    tmpcr2 |= (OC_Config->OCIdleState << 10U);
 8001b44:	696e      	ldr	r6, [r5, #20]
    tmpcr2 &= ~TIM_CR2_OIS6;
 8001b46:	f420 2080 	bic.w	r0, r0, #262144	@ 0x40000
    tmpcr2 |= (OC_Config->OCIdleState << 10U);
 8001b4a:	ea40 2086 	orr.w	r0, r0, r6, lsl #10
  }

  /* Write to TIMx CR2 */
  TIMx->CR2 = tmpcr2;
 8001b4e:	6058      	str	r0, [r3, #4]

  /* Write to TIMx CCMR3 */
  TIMx->CCMR3 = tmpccmrx;
 8001b50:	6559      	str	r1, [r3, #84]	@ 0x54

  /* Set the Capture Compare Register value */
  TIMx->CCR6 = OC_Config->Pulse;
 8001b52:	6869      	ldr	r1, [r5, #4]
 8001b54:	65d9      	str	r1, [r3, #92]	@ 0x5c

  /* Write to TIMx CCER */
  TIMx->CCER = tmpccer;
 8001b56:	621a      	str	r2, [r3, #32]
      htim->Instance->CCMR3 |= TIM_CCMR3_OC6PE;
 8001b58:	6d5a      	ldr	r2, [r3, #84]	@ 0x54
      htim->Instance->CCMR3 |= sConfig->OCFastMode << 8U;
 8001b5a:	6929      	ldr	r1, [r5, #16]
      htim->Instance->CCMR3 |= TIM_CCMR3_OC6PE;
 8001b5c:	f442 6200 	orr.w	r2, r2, #2048	@ 0x800
 8001b60:	655a      	str	r2, [r3, #84]	@ 0x54
      htim->Instance->CCMR3 &= ~TIM_CCMR3_OC6FE;
 8001b62:	6d5a      	ldr	r2, [r3, #84]	@ 0x54
 8001b64:	f422 6280 	bic.w	r2, r2, #1024	@ 0x400
 8001b68:	655a      	str	r2, [r3, #84]	@ 0x54
      htim->Instance->CCMR3 |= sConfig->OCFastMode << 8U;
 8001b6a:	6d5a      	ldr	r2, [r3, #84]	@ 0x54
 8001b6c:	ea42 2201 	orr.w	r2, r2, r1, lsl #8
 8001b70:	655a      	str	r2, [r3, #84]	@ 0x54
      break;
 8001b72:	e00e      	b.n	8001b92 <HAL_TIM_PWM_ConfigChannel+0xee>
      TIM_OC1_SetConfig(htim->Instance, sConfig);
 8001b74:	6800      	ldr	r0, [r0, #0]
 8001b76:	f7ff fc37 	bl	80013e8 <TIM_OC1_SetConfig>
      htim->Instance->CCMR1 |= TIM_CCMR1_OC1PE;
 8001b7a:	6983      	ldr	r3, [r0, #24]
      htim->Instance->CCMR1 |= sConfig->OCFastMode;
 8001b7c:	692a      	ldr	r2, [r5, #16]
      htim->Instance->CCMR1 |= TIM_CCMR1_OC1PE;
 8001b7e:	f043 0308 	orr.w	r3, r3, #8
 8001b82:	6183      	str	r3, [r0, #24]
      htim->Instance->CCMR1 &= ~TIM_CCMR1_OC1FE;
 8001b84:	6983      	ldr	r3, [r0, #24]
 8001b86:	f023 0304 	bic.w	r3, r3, #4
 8001b8a:	6183      	str	r3, [r0, #24]
      htim->Instance->CCMR1 |= sConfig->OCFastMode;
 8001b8c:	6983      	ldr	r3, [r0, #24]
 8001b8e:	4313      	orrs	r3, r2
 8001b90:	6183      	str	r3, [r0, #24]
  __HAL_UNLOCK(htim);
 8001b92:	2300      	movs	r3, #0
 8001b94:	f884 303c 	strb.w	r3, [r4, #60]	@ 0x3c
  HAL_StatusTypeDef status = HAL_OK;
 8001b98:	2000      	movs	r0, #0
}
 8001b9a:	bd70      	pop	{r4, r5, r6, pc}
      TIM_OC2_SetConfig(htim->Instance, sConfig);
 8001b9c:	6800      	ldr	r0, [r0, #0]
 8001b9e:	f7ff ff3f 	bl	8001a20 <TIM_OC2_SetConfig>
      htim->Instance->CCMR1 |= TIM_CCMR1_OC2PE;
 8001ba2:	6983      	ldr	r3, [r0, #24]
      htim->Instance->CCMR1 |= sConfig->OCFastMode << 8U;
 8001ba4:	692a      	ldr	r2, [r5, #16]
      htim->Instance->CCMR1 |= TIM_CCMR1_OC2PE;
 8001ba6:	f443 6300 	orr.w	r3, r3, #2048	@ 0x800
 8001baa:	6183      	str	r3, [r0, #24]
      htim->Instance->CCMR1 &= ~TIM_CCMR1_OC2FE;
 8001bac:	6983      	ldr	r3, [r0, #24]
 8001bae:	f423 6380 	bic.w	r3, r3, #1024	@ 0x400
 8001bb2:	6183      	str	r3, [r0, #24]
      htim->Instance->CCMR1 |= sConfig->OCFastMode << 8U;
 8001bb4:	6983      	ldr	r3, [r0, #24]
 8001bb6:	ea43 2302 	orr.w	r3, r3, r2, lsl #8
 8001bba:	6183      	str	r3, [r0, #24]
      break;
 8001bbc:	e7e9      	b.n	8001b92 <HAL_TIM_PWM_ConfigChannel+0xee>
      TIM_OC3_SetConfig(htim->Instance, sConfig);
 8001bbe:	6800      	ldr	r0, [r0, #0]
 8001bc0:	f7ff fc4e 	bl	8001460 <TIM_OC3_SetConfig>
      htim->Instance->CCMR2 |= TIM_CCMR2_OC3PE;
 8001bc4:	69c3      	ldr	r3, [r0, #28]
      htim->Instance->CCMR2 |= sConfig->OCFastMode;
 8001bc6:	692a      	ldr	r2, [r5, #16]
      htim->Instance->CCMR2 |= TIM_CCMR2_OC3PE;
 8001bc8:	f043 0308 	orr.w	r3, r3, #8
 8001bcc:	61c3      	str	r3, [r0, #28]
      htim->Instance->CCMR2 &= ~TIM_CCMR2_OC3FE;
 8001bce:	69c3      	ldr	r3, [r0, #28]
 8001bd0:	f023 0304 	bic.w	r3, r3, #4
 8001bd4:	61c3      	str	r3, [r0, #28]
      htim->Instance->CCMR2 |= sConfig->OCFastMode;
 8001bd6:	69c3      	ldr	r3, [r0, #28]
 8001bd8:	4313      	orrs	r3, r2
 8001bda:	61c3      	str	r3, [r0, #28]
      break;
 8001bdc:	e7d9      	b.n	8001b92 <HAL_TIM_PWM_ConfigChannel+0xee>
      TIM_OC4_SetConfig(htim->Instance, sConfig);
 8001bde:	6803      	ldr	r3, [r0, #0]
  tmpccmrx |= (OC_Config->OCMode << 8U);
 8001be0:	682e      	ldr	r6, [r5, #0]
  tmpccer = TIMx->CCER;
 8001be2:	6a1a      	ldr	r2, [r3, #32]
  TIMx->CCER &= ~TIM_CCER_CC4E;
 8001be4:	6a19      	ldr	r1, [r3, #32]
 8001be6:	f421 5180 	bic.w	r1, r1, #4096	@ 0x1000
 8001bea:	6219      	str	r1, [r3, #32]
  tmpcr2 =  TIMx->CR2;
 8001bec:	6858      	ldr	r0, [r3, #4]
  tmpccmrx = TIMx->CCMR2;
 8001bee:	69d9      	ldr	r1, [r3, #28]
  tmpccmrx &= ~TIM_CCMR2_CC4S;
 8001bf0:	f021 7180 	bic.w	r1, r1, #16777216	@ 0x1000000
 8001bf4:	f421 41e6 	bic.w	r1, r1, #29440	@ 0x7300
  tmpccmrx |= (OC_Config->OCMode << 8U);
 8001bf8:	ea41 2106 	orr.w	r1, r1, r6, lsl #8
  tmpccer |= (OC_Config->OCPolarity << 12U);
 8001bfc:	68ae      	ldr	r6, [r5, #8]
  tmpccer &= ~TIM_CCER_CC4P;
 8001bfe:	f422 5200 	bic.w	r2, r2, #8192	@ 0x2000
  tmpccer |= (OC_Config->OCPolarity << 12U);
 8001c02:	ea42 3206 	orr.w	r2, r2, r6, lsl #12
  if (IS_TIM_BREAK_INSTANCE(TIMx))
 8001c06:	4e35      	ldr	r6, [pc, #212]	@ (8001cdc <HAL_TIM_PWM_ConfigChannel+0x238>)
 8001c08:	42b3      	cmp	r3, r6
 8001c0a:	d00f      	beq.n	8001c2c <HAL_TIM_PWM_ConfigChannel+0x188>
 8001c0c:	f506 6600 	add.w	r6, r6, #2048	@ 0x800
 8001c10:	42b3      	cmp	r3, r6
 8001c12:	d00b      	beq.n	8001c2c <HAL_TIM_PWM_ConfigChannel+0x188>
 8001c14:	f506 6640 	add.w	r6, r6, #3072	@ 0xc00
 8001c18:	42b3      	cmp	r3, r6
 8001c1a:	d007      	beq.n	8001c2c <HAL_TIM_PWM_ConfigChannel+0x188>
 8001c1c:	f506 6680 	add.w	r6, r6, #1024	@ 0x400
 8001c20:	42b3      	cmp	r3, r6
 8001c22:	d003      	beq.n	8001c2c <HAL_TIM_PWM_ConfigChannel+0x188>
 8001c24:	f506 6680 	add.w	r6, r6, #1024	@ 0x400
 8001c28:	42b3      	cmp	r3, r6
 8001c2a:	d104      	bne.n	8001c36 <HAL_TIM_PWM_ConfigChannel+0x192>
    tmpcr2 |= (OC_Config->OCIdleState << 6U);
 8001c2c:	696e      	ldr	r6, [r5, #20]
    tmpcr2 &= ~TIM_CR2_OIS4;
 8001c2e:	f420 4080 	bic.w	r0, r0, #16384	@ 0x4000
    tmpcr2 |= (OC_Config->OCIdleState << 6U);
 8001c32:	ea40 1086 	orr.w	r0, r0, r6, lsl #6
  TIMx->CR2 = tmpcr2;
 8001c36:	6058      	str	r0, [r3, #4]
  TIMx->CCMR2 = tmpccmrx;
 8001c38:	61d9      	str	r1, [r3, #28]
  TIMx->CCR4 = OC_Config->Pulse;
 8001c3a:	6869      	ldr	r1, [r5, #4]
 8001c3c:	6419      	str	r1, [r3, #64]	@ 0x40
  TIMx->CCER = tmpccer;
 8001c3e:	621a      	str	r2, [r3, #32]
      htim->Instance->CCMR2 |= TIM_CCMR2_OC4PE;
 8001c40:	69da      	ldr	r2, [r3, #28]
      htim->Instance->CCMR2 |= sConfig->OCFastMode << 8U;
 8001c42:	6929      	ldr	r1, [r5, #16]
      htim->Instance->CCMR2 |= TIM_CCMR2_OC4PE;
 8001c44:	f442 6200 	orr.w	r2, r2, #2048	@ 0x800
 8001c48:	61da      	str	r2, [r3, #28]
      htim->Instance->CCMR2 &= ~TIM_CCMR2_OC4FE;
 8001c4a:	69da      	ldr	r2, [r3, #28]
 8001c4c:	f422 6280 	bic.w	r2, r2, #1024	@ 0x400
 8001c50:	61da      	str	r2, [r3, #28]
      htim->Instance->CCMR2 |= sConfig->OCFastMode << 8U;
 8001c52:	69da      	ldr	r2, [r3, #28]
 8001c54:	ea42 2201 	orr.w	r2, r2, r1, lsl #8
 8001c58:	61da      	str	r2, [r3, #28]
      break;
 8001c5a:	e79a      	b.n	8001b92 <HAL_TIM_PWM_ConfigChannel+0xee>
      TIM_OC5_SetConfig(htim->Instance, sConfig);
 8001c5c:	6803      	ldr	r3, [r0, #0]
  tmpccmrx |= OC_Config->OCMode;
 8001c5e:	682e      	ldr	r6, [r5, #0]
  tmpccer = TIMx->CCER;
 8001c60:	6a1a      	ldr	r2, [r3, #32]
  TIMx->CCER &= ~TIM_CCER_CC5E;
 8001c62:	6a19      	ldr	r1, [r3, #32]
 8001c64:	f421 3180 	bic.w	r1, r1, #65536	@ 0x10000
 8001c68:	6219      	str	r1, [r3, #32]
  tmpcr2 =  TIMx->CR2;
 8001c6a:	6858      	ldr	r0, [r3, #4]
  tmpccmrx = TIMx->CCMR3;
 8001c6c:	6d59      	ldr	r1, [r3, #84]	@ 0x54
  tmpccmrx &= ~(TIM_CCMR3_OC5M);
 8001c6e:	f421 3180 	bic.w	r1, r1, #65536	@ 0x10000
 8001c72:	f021 0170 	bic.w	r1, r1, #112	@ 0x70
  tmpccmrx |= OC_Config->OCMode;
 8001c76:	4331      	orrs	r1, r6
  tmpccer |= (OC_Config->OCPolarity << 16U);
 8001c78:	68ae      	ldr	r6, [r5, #8]
  tmpccer &= ~TIM_CCER_CC5P;
 8001c7a:	f422 3200 	bic.w	r2, r2, #131072	@ 0x20000
  tmpccer |= (OC_Config->OCPolarity << 16U);
 8001c7e:	ea42 4206 	orr.w	r2, r2, r6, lsl #16
  if (IS_TIM_BREAK_INSTANCE(TIMx))
 8001c82:	4e16      	ldr	r6, [pc, #88]	@ (8001cdc <HAL_TIM_PWM_ConfigChannel+0x238>)
 8001c84:	42b3      	cmp	r3, r6
 8001c86:	d00f      	beq.n	8001ca8 <HAL_TIM_PWM_ConfigChannel+0x204>
 8001c88:	f506 6600 	add.w	r6, r6, #2048	@ 0x800
 8001c8c:	42b3      	cmp	r3, r6
 8001c8e:	d00b      	beq.n	8001ca8 <HAL_TIM_PWM_ConfigChannel+0x204>
 8001c90:	f506 6640 	add.w	r6, r6, #3072	@ 0xc00
 8001c94:	42b3      	cmp	r3, r6
 8001c96:	d007      	beq.n	8001ca8 <HAL_TIM_PWM_ConfigChannel+0x204>
 8001c98:	f506 6680 	add.w	r6, r6, #1024	@ 0x400
 8001c9c:	42b3      	cmp	r3, r6
 8001c9e:	d003      	beq.n	8001ca8 <HAL_TIM_PWM_ConfigChannel+0x204>
 8001ca0:	f506 6680 	add.w	r6, r6, #1024	@ 0x400
 8001ca4:	42b3      	cmp	r3, r6
 8001ca6:	d104      	bne.n	8001cb2 <HAL_TIM_PWM_ConfigChannel+0x20e>
    tmpcr2 |= (OC_Config->OCIdleState << 8U);
 8001ca8:	696e      	ldr	r6, [r5, #20]
    tmpcr2 &= ~TIM_CR2_OIS5;
 8001caa:	f420 3080 	bic.w	r0, r0, #65536	@ 0x10000
    tmpcr2 |= (OC_Config->OCIdleState << 8U);
 8001cae:	ea40 2006 	orr.w	r0, r0, r6, lsl #8
  TIMx->CR2 = tmpcr2;
 8001cb2:	6058      	str	r0, [r3, #4]
  TIMx->CCMR3 = tmpccmrx;
 8001cb4:	6559      	str	r1, [r3, #84]	@ 0x54
  TIMx->CCR5 = OC_Config->Pulse;
 8001cb6:	6869      	ldr	r1, [r5, #4]
 8001cb8:	6599      	str	r1, [r3, #88]	@ 0x58
  TIMx->CCER = tmpccer;
 8001cba:	621a      	str	r2, [r3, #32]
      htim->Instance->CCMR3 |= TIM_CCMR3_OC5PE;
 8001cbc:	6d5a      	ldr	r2, [r3, #84]	@ 0x54
      htim->Instance->CCMR3 |= sConfig->OCFastMode;
 8001cbe:	6929      	ldr	r1, [r5, #16]
      htim->Instance->CCMR3 |= TIM_CCMR3_OC5PE;
 8001cc0:	f042 0208 	orr.w	r2, r2, #8
 8001cc4:	655a      	str	r2, [r3, #84]	@ 0x54
      htim->Instance->CCMR3 &= ~TIM_CCMR3_OC5FE;
 8001cc6:	6d5a      	ldr	r2, [r3, #84]	@ 0x54
 8001cc8:	f022 0204 	bic.w	r2, r2, #4
 8001ccc:	655a      	str	r2, [r3, #84]	@ 0x54
      htim->Instance->CCMR3 |= sConfig->OCFastMode;
 8001cce:	6d5a      	ldr	r2, [r3, #84]	@ 0x54
 8001cd0:	430a      	orrs	r2, r1
 8001cd2:	655a      	str	r2, [r3, #84]	@ 0x54
      break;
 8001cd4:	e75d      	b.n	8001b92 <HAL_TIM_PWM_ConfigChannel+0xee>
  __HAL_LOCK(htim);
 8001cd6:	2002      	movs	r0, #2
}
 8001cd8:	4770      	bx	lr
 8001cda:	bf00      	nop
 8001cdc:	40012c00 	.word	0x40012c00

08001ce0 <HAL_TIMEx_MasterConfigSynchronization>:
  assert_param(IS_TIM_MASTER_INSTANCE(htim->Instance));
  assert_param(IS_TIM_TRGO_SOURCE(sMasterConfig->MasterOutputTrigger));
  assert_param(IS_TIM_MSM_STATE(sMasterConfig->MasterSlaveMode));

  /* Check input state */
  __HAL_LOCK(htim);
 8001ce0:	f890 203c 	ldrb.w	r2, [r0, #60]	@ 0x3c
 8001ce4:	2a01      	cmp	r2, #1
 8001ce6:	d040      	beq.n	8001d6a <HAL_TIMEx_MasterConfigSynchronization+0x8a>

  /* Change the handler state */
  htim->State = HAL_TIM_STATE_BUSY;

  /* Get the TIMx CR2 register value */
  tmpcr2 = htim->Instance->CR2;
 8001ce8:	6802      	ldr	r2, [r0, #0]
{
 8001cea:	b470      	push	{r4, r5, r6}
 8001cec:	4603      	mov	r3, r0
  /* Get the TIMx SMCR register value */
  tmpsmcr = htim->Instance->SMCR;

#if defined(TIM_CR2_MMS2)
  /* If the timer supports ADC synchronization through TRGO2, set the master mode selection 2 */
  if (IS_TIM_TRGO2_INSTANCE(htim->Instance))
 8001cee:	4e20      	ldr	r6, [pc, #128]	@ (8001d70 <HAL_TIMEx_MasterConfigSynchronization+0x90>)
  htim->State = HAL_TIM_STATE_BUSY;
 8001cf0:	2002      	movs	r0, #2
 8001cf2:	f883 003d 	strb.w	r0, [r3, #61]	@ 0x3d
  if (IS_TIM_TRGO2_INSTANCE(htim->Instance))
 8001cf6:	42b2      	cmp	r2, r6
  tmpcr2 = htim->Instance->CR2;
 8001cf8:	6850      	ldr	r0, [r2, #4]
#endif /* TIM_CR2_MMS2 */

  /* Reset the MMS Bits */
  tmpcr2 &= ~TIM_CR2_MMS;
  /* Select the TRGO source */
  tmpcr2 |=  sMasterConfig->MasterOutputTrigger;
 8001cfa:	680d      	ldr	r5, [r1, #0]
  tmpsmcr = htim->Instance->SMCR;
 8001cfc:	6894      	ldr	r4, [r2, #8]
  if (IS_TIM_TRGO2_INSTANCE(htim->Instance))
 8001cfe:	d022      	beq.n	8001d46 <HAL_TIMEx_MasterConfigSynchronization+0x66>
 8001d00:	f506 6600 	add.w	r6, r6, #2048	@ 0x800
 8001d04:	42b2      	cmp	r2, r6
 8001d06:	d027      	beq.n	8001d58 <HAL_TIMEx_MasterConfigSynchronization+0x78>
  tmpcr2 &= ~TIM_CR2_MMS;
 8001d08:	f020 0070 	bic.w	r0, r0, #112	@ 0x70
  tmpcr2 |=  sMasterConfig->MasterOutputTrigger;
 8001d0c:	4328      	orrs	r0, r5

  /* Update TIMx CR2 */
  htim->Instance->CR2 = tmpcr2;

  if (IS_TIM_SLAVE_INSTANCE(htim->Instance))
 8001d0e:	f1b2 4f80 	cmp.w	r2, #1073741824	@ 0x40000000
  htim->Instance->CR2 = tmpcr2;
 8001d12:	6050      	str	r0, [r2, #4]
  if (IS_TIM_SLAVE_INSTANCE(htim->Instance))
 8001d14:	d00a      	beq.n	8001d2c <HAL_TIMEx_MasterConfigSynchronization+0x4c>
 8001d16:	4817      	ldr	r0, [pc, #92]	@ (8001d74 <HAL_TIMEx_MasterConfigSynchronization+0x94>)
 8001d18:	4282      	cmp	r2, r0
 8001d1a:	d007      	beq.n	8001d2c <HAL_TIMEx_MasterConfigSynchronization+0x4c>
 8001d1c:	f500 6080 	add.w	r0, r0, #1024	@ 0x400
 8001d20:	4282      	cmp	r2, r0
 8001d22:	d003      	beq.n	8001d2c <HAL_TIMEx_MasterConfigSynchronization+0x4c>
 8001d24:	f500 309c 	add.w	r0, r0, #79872	@ 0x13800
 8001d28:	4282      	cmp	r2, r0
 8001d2a:	d104      	bne.n	8001d36 <HAL_TIMEx_MasterConfigSynchronization+0x56>
  {
    /* Reset the MSM Bit */
    tmpsmcr &= ~TIM_SMCR_MSM;
    /* Set master mode */
    tmpsmcr |= sMasterConfig->MasterSlaveMode;
 8001d2c:	6889      	ldr	r1, [r1, #8]
    tmpsmcr &= ~TIM_SMCR_MSM;
 8001d2e:	f024 0480 	bic.w	r4, r4, #128	@ 0x80
    tmpsmcr |= sMasterConfig->MasterSlaveMode;
 8001d32:	430c      	orrs	r4, r1

    /* Update TIMx SMCR */
    htim->Instance->SMCR = tmpsmcr;
 8001d34:	6094      	str	r4, [r2, #8]
  }

  /* Change the htim state */
  htim->State = HAL_TIM_STATE_READY;

  __HAL_UNLOCK(htim);
 8001d36:	2000      	movs	r0, #0
  htim->State = HAL_TIM_STATE_READY;
 8001d38:	2201      	movs	r2, #1
 8001d3a:	f883 203d 	strb.w	r2, [r3, #61]	@ 0x3d
  __HAL_UNLOCK(htim);
 8001d3e:	f883 003c 	strb.w	r0, [r3, #60]	@ 0x3c

  return HAL_OK;
}
 8001d42:	bc70      	pop	{r4, r5, r6}
 8001d44:	4770      	bx	lr
    tmpcr2 |= sMasterConfig->MasterOutputTrigger2;
 8001d46:	684e      	ldr	r6, [r1, #4]
    tmpcr2 &= ~TIM_CR2_MMS2;
 8001d48:	f420 0070 	bic.w	r0, r0, #15728640	@ 0xf00000
    tmpcr2 |= sMasterConfig->MasterOutputTrigger2;
 8001d4c:	4330      	orrs	r0, r6
  tmpcr2 &= ~TIM_CR2_MMS;
 8001d4e:	f020 0070 	bic.w	r0, r0, #112	@ 0x70
  tmpcr2 |=  sMasterConfig->MasterOutputTrigger;
 8001d52:	4328      	orrs	r0, r5
  htim->Instance->CR2 = tmpcr2;
 8001d54:	6050      	str	r0, [r2, #4]
  if (IS_TIM_SLAVE_INSTANCE(htim->Instance))
 8001d56:	e7e9      	b.n	8001d2c <HAL_TIMEx_MasterConfigSynchronization+0x4c>
    tmpcr2 |= sMasterConfig->MasterOutputTrigger2;
 8001d58:	684e      	ldr	r6, [r1, #4]
    tmpcr2 &= ~TIM_CR2_MMS2;
 8001d5a:	f420 0070 	bic.w	r0, r0, #15728640	@ 0xf00000
    tmpcr2 |= sMasterConfig->MasterOutputTrigger2;
 8001d5e:	4330      	orrs	r0, r6
  tmpcr2 &= ~TIM_CR2_MMS;
 8001d60:	f020 0070 	bic.w	r0, r0, #112	@ 0x70
  tmpcr2 |=  sMasterConfig->MasterOutputTrigger;
 8001d64:	4305      	orrs	r5, r0
  htim->Instance->CR2 = tmpcr2;
 8001d66:	6055      	str	r5, [r2, #4]
  if (IS_TIM_SLAVE_INSTANCE(htim->Instance))
 8001d68:	e7e0      	b.n	8001d2c <HAL_TIMEx_MasterConfigSynchronization+0x4c>
  __HAL_LOCK(htim);
 8001d6a:	2002      	movs	r0, #2
}
 8001d6c:	4770      	bx	lr
 8001d6e:	bf00      	nop
 8001d70:	40012c00 	.word	0x40012c00
 8001d74:	40000400 	.word	0x40000400

08001d78 <HAL_TIMEx_ConfigBreakDeadTime>:
  assert_param(IS_TIM_BREAK_FILTER(sBreakDeadTimeConfig->BreakFilter));
#endif /* TIM_BDTR_BKF */
  assert_param(IS_TIM_AUTOMATIC_OUTPUT_STATE(sBreakDeadTimeConfig->AutomaticOutput));

  /* Check input state */
  __HAL_LOCK(htim);
 8001d78:	f890 303c 	ldrb.w	r3, [r0, #60]	@ 0x3c
 8001d7c:	2b01      	cmp	r3, #1
 8001d7e:	d03d      	beq.n	8001dfc <HAL_TIMEx_ConfigBreakDeadTime+0x84>
{
 8001d80:	b410      	push	{r4}
  /* Set the Lock level, the Break enable Bit and the Polarity, the OSSR State,
     the OSSI State, the dead time value and the Automatic Output Enable Bit */

  /* Set the BDTR bits */
  MODIFY_REG(tmpbdtr, TIM_BDTR_DTG, sBreakDeadTimeConfig->DeadTime);
  MODIFY_REG(tmpbdtr, TIM_BDTR_LOCK, sBreakDeadTimeConfig->LockLevel);
 8001d82:	e9d1 4302 	ldrd	r4, r3, [r1, #8]
 8001d86:	f423 7340 	bic.w	r3, r3, #768	@ 0x300
 8001d8a:	4602      	mov	r2, r0
 8001d8c:	4323      	orrs	r3, r4
  MODIFY_REG(tmpbdtr, TIM_BDTR_OSSI, sBreakDeadTimeConfig->OffStateIDLEMode);
 8001d8e:	6848      	ldr	r0, [r1, #4]
  MODIFY_REG(tmpbdtr, TIM_BDTR_OSSR, sBreakDeadTimeConfig->OffStateRunMode);
 8001d90:	680c      	ldr	r4, [r1, #0]
  MODIFY_REG(tmpbdtr, TIM_BDTR_OSSI, sBreakDeadTimeConfig->OffStateIDLEMode);
 8001d92:	f423 6380 	bic.w	r3, r3, #1024	@ 0x400
 8001d96:	4303      	orrs	r3, r0
  MODIFY_REG(tmpbdtr, TIM_BDTR_OSSR, sBreakDeadTimeConfig->OffStateRunMode);
 8001d98:	f423 6300 	bic.w	r3, r3, #2048	@ 0x800
  MODIFY_REG(tmpbdtr, TIM_BDTR_BKE, sBreakDeadTimeConfig->BreakState);
 8001d9c:	6908      	ldr	r0, [r1, #16]
  MODIFY_REG(tmpbdtr, TIM_BDTR_OSSR, sBreakDeadTimeConfig->OffStateRunMode);
 8001d9e:	4323      	orrs	r3, r4
  MODIFY_REG(tmpbdtr, TIM_BDTR_BKE, sBreakDeadTimeConfig->BreakState);
 8001da0:	f423 5380 	bic.w	r3, r3, #4096	@ 0x1000
  MODIFY_REG(tmpbdtr, TIM_BDTR_BKP, sBreakDeadTimeConfig->BreakPolarity);
 8001da4:	694c      	ldr	r4, [r1, #20]
  MODIFY_REG(tmpbdtr, TIM_BDTR_BKE, sBreakDeadTimeConfig->BreakState);
 8001da6:	4303      	orrs	r3, r0
  MODIFY_REG(tmpbdtr, TIM_BDTR_BKP, sBreakDeadTimeConfig->BreakPolarity);
 8001da8:	f423 5300 	bic.w	r3, r3, #8192	@ 0x2000
  MODIFY_REG(tmpbdtr, TIM_BDTR_AOE, sBreakDeadTimeConfig->AutomaticOutput);
 8001dac:	6a88      	ldr	r0, [r1, #40]	@ 0x28
  MODIFY_REG(tmpbdtr, TIM_BDTR_BKP, sBreakDeadTimeConfig->BreakPolarity);
 8001dae:	4323      	orrs	r3, r4
  MODIFY_REG(tmpbdtr, TIM_BDTR_AOE, sBreakDeadTimeConfig->AutomaticOutput);
 8001db0:	f423 4380 	bic.w	r3, r3, #16384	@ 0x4000
#if defined(TIM_BDTR_BKF)
  MODIFY_REG(tmpbdtr, TIM_BDTR_BKF, (sBreakDeadTimeConfig->BreakFilter << TIM_BDTR_BKF_Pos));
 8001db4:	698c      	ldr	r4, [r1, #24]
  MODIFY_REG(tmpbdtr, TIM_BDTR_AOE, sBreakDeadTimeConfig->AutomaticOutput);
 8001db6:	4303      	orrs	r3, r0
  MODIFY_REG(tmpbdtr, TIM_BDTR_BKF, (sBreakDeadTimeConfig->BreakFilter << TIM_BDTR_BKF_Pos));
 8001db8:	f423 2370 	bic.w	r3, r3, #983040	@ 0xf0000
#endif /* TIM_BDTR_BKF */

#if defined(TIM_BDTR_BK2E)
  if (IS_TIM_BKIN2_INSTANCE(htim->Instance))
 8001dbc:	6810      	ldr	r0, [r2, #0]
  MODIFY_REG(tmpbdtr, TIM_BDTR_BKF, (sBreakDeadTimeConfig->BreakFilter << TIM_BDTR_BKF_Pos));
 8001dbe:	ea43 4304 	orr.w	r3, r3, r4, lsl #16
  if (IS_TIM_BKIN2_INSTANCE(htim->Instance))
 8001dc2:	4c0f      	ldr	r4, [pc, #60]	@ (8001e00 <HAL_TIMEx_ConfigBreakDeadTime+0x88>)
 8001dc4:	42a0      	cmp	r0, r4
 8001dc6:	d00b      	beq.n	8001de0 <HAL_TIMEx_ConfigBreakDeadTime+0x68>
 8001dc8:	f504 6400 	add.w	r4, r4, #2048	@ 0x800
 8001dcc:	42a0      	cmp	r0, r4
 8001dce:	d007      	beq.n	8001de0 <HAL_TIMEx_ConfigBreakDeadTime+0x68>
#endif /* TIM_BDTR_BK2E */

  /* Set TIMx_BDTR */
  htim->Instance->BDTR = tmpbdtr;

  __HAL_UNLOCK(htim);
 8001dd0:	2100      	movs	r1, #0
  htim->Instance->BDTR = tmpbdtr;
 8001dd2:	6443      	str	r3, [r0, #68]	@ 0x44
  __HAL_UNLOCK(htim);
 8001dd4:	f882 103c 	strb.w	r1, [r2, #60]	@ 0x3c

  return HAL_OK;
 8001dd8:	4608      	mov	r0, r1
}
 8001dda:	f85d 4b04 	ldr.w	r4, [sp], #4
 8001dde:	4770      	bx	lr
    MODIFY_REG(tmpbdtr, TIM_BDTR_BK2F, (sBreakDeadTimeConfig->Break2Filter << TIM_BDTR_BK2F_Pos));
 8001de0:	6a4c      	ldr	r4, [r1, #36]	@ 0x24
 8001de2:	f423 0370 	bic.w	r3, r3, #15728640	@ 0xf00000
 8001de6:	ea43 5304 	orr.w	r3, r3, r4, lsl #20
    MODIFY_REG(tmpbdtr, TIM_BDTR_BK2E, sBreakDeadTimeConfig->Break2State);
 8001dea:	69cc      	ldr	r4, [r1, #28]
    MODIFY_REG(tmpbdtr, TIM_BDTR_BK2P, sBreakDeadTimeConfig->Break2Polarity);
 8001dec:	6a09      	ldr	r1, [r1, #32]
    MODIFY_REG(tmpbdtr, TIM_BDTR_BK2E, sBreakDeadTimeConfig->Break2State);
 8001dee:	f023 7380 	bic.w	r3, r3, #16777216	@ 0x1000000
 8001df2:	4323      	orrs	r3, r4
    MODIFY_REG(tmpbdtr, TIM_BDTR_BK2P, sBreakDeadTimeConfig->Break2Polarity);
 8001df4:	f023 7300 	bic.w	r3, r3, #33554432	@ 0x2000000
 8001df8:	430b      	orrs	r3, r1
 8001dfa:	e7e9      	b.n	8001dd0 <HAL_TIMEx_ConfigBreakDeadTime+0x58>
  __HAL_LOCK(htim);
 8001dfc:	2002      	movs	r0, #2
}
 8001dfe:	4770      	bx	lr
 8001e00:	40012c00 	.word	0x40012c00

08001e04 <HAL_TIMEx_CommutCallback>:
/**
  * @brief  Commutation callback in non-blocking mode
  * @param  htim TIM handle
  * @retval None
  */
__weak void HAL_TIMEx_CommutCallback(TIM_HandleTypeDef *htim)
 8001e04:	4770      	bx	lr
 8001e06:	bf00      	nop

08001e08 <HAL_TIMEx_BreakCallback>:
/**
  * @brief  Break detection callback in non-blocking mode
  * @param  htim TIM handle
  * @retval None
  */
__weak void HAL_TIMEx_BreakCallback(TIM_HandleTypeDef *htim)
 8001e08:	4770      	bx	lr
 8001e0a:	bf00      	nop

08001e0c <HAL_TIMEx_Break2Callback>:
/**
  * @brief  Break2 detection callback in non blocking mode
  * @param  htim: TIM handle
  * @retval None
  */
__weak void HAL_TIMEx_Break2Callback(TIM_HandleTypeDef *htim)
 8001e0c:	4770      	bx	lr
 8001e0e:	bf00      	nop

08001e10 <HAL_UART_Transmit>:
  * @param Size    Amount of data elements (u8 or u16) to be sent.
  * @param Timeout Timeout duration.
  * @retval HAL status
  */
HAL_StatusTypeDef HAL_UART_Transmit(UART_HandleTypeDef *huart, const uint8_t *pData, uint16_t Size, uint32_t Timeout)
{
 8001e10:	e92d 43f8 	stmdb	sp!, {r3, r4, r5, r6, r7, r8, r9, lr}
 8001e14:	4604      	mov	r4, r0
  const uint8_t  *pdata8bits;
  const uint16_t *pdata16bits;
  uint32_t tickstart;

  /* Check that a Tx process is not already ongoing */
  if (huart->gState == HAL_UART_STATE_READY)
 8001e16:	6fc0      	ldr	r0, [r0, #124]	@ 0x7c
 8001e18:	2820      	cmp	r0, #32
 8001e1a:	d15c      	bne.n	8001ed6 <HAL_UART_Transmit+0xc6>
  {
    if ((pData == NULL) || (Size == 0U))
 8001e1c:	460d      	mov	r5, r1
 8001e1e:	b109      	cbz	r1, 8001e24 <HAL_UART_Transmit+0x14>
 8001e20:	4616      	mov	r6, r2
 8001e22:	b912      	cbnz	r2, 8001e2a <HAL_UART_Transmit+0x1a>
    {
      return  HAL_ERROR;
 8001e24:	2001      	movs	r0, #1
  }
  else
  {
    return HAL_BUSY;
  }
}
 8001e26:	e8bd 83f8 	ldmia.w	sp!, {r3, r4, r5, r6, r7, r8, r9, pc}
 8001e2a:	461f      	mov	r7, r3
    huart->ErrorCode = HAL_UART_ERROR_NONE;
 8001e2c:	f04f 0800 	mov.w	r8, #0
    huart->gState = HAL_UART_STATE_BUSY_TX;
 8001e30:	2321      	movs	r3, #33	@ 0x21
    huart->ErrorCode = HAL_UART_ERROR_NONE;
 8001e32:	f8c4 8084 	str.w	r8, [r4, #132]	@ 0x84
    huart->gState = HAL_UART_STATE_BUSY_TX;
 8001e36:	67e3      	str	r3, [r4, #124]	@ 0x7c
    tickstart = HAL_GetTick();
 8001e38:	f7fe fa08 	bl	800024c <HAL_GetTick>
    if ((huart->Init.WordLength == UART_WORDLENGTH_9B) && (huart->Init.Parity == UART_PARITY_NONE))
 8001e3c:	68a3      	ldr	r3, [r4, #8]
    huart->TxXferSize  = Size;
 8001e3e:	f8a4 6050 	strh.w	r6, [r4, #80]	@ 0x50
    if ((huart->Init.WordLength == UART_WORDLENGTH_9B) && (huart->Init.Parity == UART_PARITY_NONE))
 8001e42:	f5b3 5f80 	cmp.w	r3, #4096	@ 0x1000
    tickstart = HAL_GetTick();
 8001e46:	4681      	mov	r9, r0
    huart->TxXferCount = Size;
 8001e48:	f8a4 6052 	strh.w	r6, [r4, #82]	@ 0x52
    if ((huart->Init.WordLength == UART_WORDLENGTH_9B) && (huart->Init.Parity == UART_PARITY_NONE))
 8001e4c:	d046      	beq.n	8001edc <HAL_UART_Transmit+0xcc>
    while (huart->TxXferCount > 0U)
 8001e4e:	f8b4 3052 	ldrh.w	r3, [r4, #82]	@ 0x52
  */
HAL_StatusTypeDef UART_WaitOnFlagUntilTimeout(UART_HandleTypeDef *huart, uint32_t Flag, FlagStatus Status,
                                              uint32_t Tickstart, uint32_t Timeout)
{
  /* Wait until flag is set */
  while ((__HAL_UART_GET_FLAG(huart, Flag) ? SET : RESET) == Status)
 8001e52:	6822      	ldr	r2, [r4, #0]
    while (huart->TxXferCount > 0U)
 8001e54:	b29b      	uxth	r3, r3
 8001e56:	2b00      	cmp	r3, #0
 8001e58:	d04b      	beq.n	8001ef2 <HAL_UART_Transmit+0xe2>
 8001e5a:	1c7b      	adds	r3, r7, #1
 8001e5c:	d129      	bne.n	8001eb2 <HAL_UART_Transmit+0xa2>
  while ((__HAL_UART_GET_FLAG(huart, Flag) ? SET : RESET) == Status)
 8001e5e:	69d3      	ldr	r3, [r2, #28]
 8001e60:	061f      	lsls	r7, r3, #24
 8001e62:	d5fc      	bpl.n	8001e5e <HAL_UART_Transmit+0x4e>
      if (pdata8bits == NULL)
 8001e64:	2d00      	cmp	r5, #0
 8001e66:	d031      	beq.n	8001ecc <HAL_UART_Transmit+0xbc>
        huart->Instance->TDR = (uint8_t)(*pdata8bits & 0xFFU);
 8001e68:	f815 3b01 	ldrb.w	r3, [r5], #1
        huart->Instance->TDR = (uint16_t)(*pdata16bits & 0x01FFU);
 8001e6c:	8513      	strh	r3, [r2, #40]	@ 0x28
      huart->TxXferCount--;
 8001e6e:	f8b4 3052 	ldrh.w	r3, [r4, #82]	@ 0x52
 8001e72:	3b01      	subs	r3, #1
 8001e74:	b29b      	uxth	r3, r3
 8001e76:	f8a4 3052 	strh.w	r3, [r4, #82]	@ 0x52
    while (huart->TxXferCount > 0U)
 8001e7a:	f8b4 3052 	ldrh.w	r3, [r4, #82]	@ 0x52
 8001e7e:	b29b      	uxth	r3, r3
 8001e80:	2b00      	cmp	r3, #0
 8001e82:	d1ec      	bne.n	8001e5e <HAL_UART_Transmit+0x4e>
  while ((__HAL_UART_GET_FLAG(huart, Flag) ? SET : RESET) == Status)
 8001e84:	69d3      	ldr	r3, [r2, #28]
 8001e86:	0659      	lsls	r1, r3, #25
 8001e88:	d5fc      	bpl.n	8001e84 <HAL_UART_Transmit+0x74>
    huart->gState = HAL_UART_STATE_READY;
 8001e8a:	2320      	movs	r3, #32
 8001e8c:	67e3      	str	r3, [r4, #124]	@ 0x7c
    return HAL_OK;
 8001e8e:	2000      	movs	r0, #0
}
 8001e90:	e8bd 83f8 	ldmia.w	sp!, {r3, r4, r5, r6, r7, r8, r9, pc}
      if (pdata8bits == NULL)
 8001e94:	2d00      	cmp	r5, #0
 8001e96:	d03f      	beq.n	8001f18 <HAL_UART_Transmit+0x108>
        huart->Instance->TDR = (uint8_t)(*pdata8bits & 0xFFU);
 8001e98:	f815 3b01 	ldrb.w	r3, [r5], #1
 8001e9c:	8513      	strh	r3, [r2, #40]	@ 0x28
      huart->TxXferCount--;
 8001e9e:	f8b4 3052 	ldrh.w	r3, [r4, #82]	@ 0x52
 8001ea2:	3b01      	subs	r3, #1
 8001ea4:	b29b      	uxth	r3, r3
 8001ea6:	f8a4 3052 	strh.w	r3, [r4, #82]	@ 0x52
    while (huart->TxXferCount > 0U)
 8001eaa:	f8b4 3052 	ldrh.w	r3, [r4, #82]	@ 0x52
 8001eae:	b29b      	uxth	r3, r3
 8001eb0:	b30b      	cbz	r3, 8001ef6 <HAL_UART_Transmit+0xe6>
  while ((__HAL_UART_GET_FLAG(huart, Flag) ? SET : RESET) == Status)
 8001eb2:	69d3      	ldr	r3, [r2, #28]
 8001eb4:	061e      	lsls	r6, r3, #24
 8001eb6:	d4ed      	bmi.n	8001e94 <HAL_UART_Transmit+0x84>
  {
    /* Check for the Timeout */
    if (Timeout != HAL_MAX_DELAY)
    {
      if (((HAL_GetTick() - Tickstart) > Timeout) || (Timeout == 0U))
 8001eb8:	f7fe f9c8 	bl	800024c <HAL_GetTick>
 8001ebc:	eba0 0309 	sub.w	r3, r0, r9
 8001ec0:	429f      	cmp	r7, r3
 8001ec2:	d311      	bcc.n	8001ee8 <HAL_UART_Transmit+0xd8>
 8001ec4:	b187      	cbz	r7, 8001ee8 <HAL_UART_Transmit+0xd8>
      {

        return HAL_TIMEOUT;
      }

      if ((READ_BIT(huart->Instance->CR1, USART_CR1_RE) != 0U) && (Flag != UART_FLAG_TXE) && (Flag != UART_FLAG_TC))
 8001ec6:	6822      	ldr	r2, [r4, #0]
 8001ec8:	6813      	ldr	r3, [r2, #0]
 8001eca:	e7f2      	b.n	8001eb2 <HAL_UART_Transmit+0xa2>
        huart->Instance->TDR = (uint16_t)(*pdata16bits & 0x01FFU);
 8001ecc:	f838 3b02 	ldrh.w	r3, [r8], #2
 8001ed0:	f3c3 0308 	ubfx	r3, r3, #0, #9
 8001ed4:	e7ca      	b.n	8001e6c <HAL_UART_Transmit+0x5c>
    return HAL_BUSY;
 8001ed6:	2002      	movs	r0, #2
}
 8001ed8:	e8bd 83f8 	ldmia.w	sp!, {r3, r4, r5, r6, r7, r8, r9, pc}
    if ((huart->Init.WordLength == UART_WORDLENGTH_9B) && (huart->Init.Parity == UART_PARITY_NONE))
 8001edc:	6923      	ldr	r3, [r4, #16]
 8001ede:	2b00      	cmp	r3, #0
 8001ee0:	d1b5      	bne.n	8001e4e <HAL_UART_Transmit+0x3e>
      pdata16bits = (const uint16_t *) pData;
 8001ee2:	46a8      	mov	r8, r5
      pdata8bits  = NULL;
 8001ee4:	461d      	mov	r5, r3
 8001ee6:	e7b2      	b.n	8001e4e <HAL_UART_Transmit+0x3e>
        huart->gState = HAL_UART_STATE_READY;
 8001ee8:	2320      	movs	r3, #32
 8001eea:	67e3      	str	r3, [r4, #124]	@ 0x7c
        return HAL_TIMEOUT;
 8001eec:	2003      	movs	r0, #3
}
 8001eee:	e8bd 83f8 	ldmia.w	sp!, {r3, r4, r5, r6, r7, r8, r9, pc}
 8001ef2:	1c78      	adds	r0, r7, #1
 8001ef4:	d0c6      	beq.n	8001e84 <HAL_UART_Transmit+0x74>
  while ((__HAL_UART_GET_FLAG(huart, Flag) ? SET : RESET) == Status)
 8001ef6:	69d3      	ldr	r3, [r2, #28]
 8001ef8:	065b      	lsls	r3, r3, #25
 8001efa:	d4c6      	bmi.n	8001e8a <HAL_UART_Transmit+0x7a>
      if (((HAL_GetTick() - Tickstart) > Timeout) || (Timeout == 0U))
 8001efc:	f7fe f9a6 	bl	800024c <HAL_GetTick>
 8001f00:	eba0 0309 	sub.w	r3, r0, r9
 8001f04:	429f      	cmp	r7, r3
 8001f06:	d3ef      	bcc.n	8001ee8 <HAL_UART_Transmit+0xd8>
 8001f08:	2f00      	cmp	r7, #0
 8001f0a:	d0ed      	beq.n	8001ee8 <HAL_UART_Transmit+0xd8>
      if ((READ_BIT(huart->Instance->CR1, USART_CR1_RE) != 0U) && (Flag != UART_FLAG_TXE) && (Flag != UART_FLAG_TC))
 8001f0c:	6822      	ldr	r2, [r4, #0]
 8001f0e:	6813      	ldr	r3, [r2, #0]
  while ((__HAL_UART_GET_FLAG(huart, Flag) ? SET : RESET) == Status)
 8001f10:	69d3      	ldr	r3, [r2, #28]
 8001f12:	065b      	lsls	r3, r3, #25
 8001f14:	d5f2      	bpl.n	8001efc <HAL_UART_Transmit+0xec>
 8001f16:	e7b8      	b.n	8001e8a <HAL_UART_Transmit+0x7a>
        huart->Instance->TDR = (uint16_t)(*pdata16bits & 0x01FFU);
 8001f18:	f838 3b02 	ldrh.w	r3, [r8], #2
 8001f1c:	f3c3 0308 	ubfx	r3, r3, #0, #9
 8001f20:	e7bc      	b.n	8001e9c <HAL_UART_Transmit+0x8c>
 8001f22:	bf00      	nop

08001f24 <HAL_UART_TxCpltCallback>:
__weak void HAL_UART_TxCpltCallback(UART_HandleTypeDef *huart)
 8001f24:	4770      	bx	lr
 8001f26:	bf00      	nop

08001f28 <HAL_UART_RxCpltCallback>:
__weak void HAL_UART_RxCpltCallback(UART_HandleTypeDef *huart)
 8001f28:	4770      	bx	lr
 8001f2a:	bf00      	nop

08001f2c <HAL_UART_ErrorCallback>:
__weak void HAL_UART_ErrorCallback(UART_HandleTypeDef *huart)
 8001f2c:	4770      	bx	lr
 8001f2e:	bf00      	nop

08001f30 <UART_DMAAbortOnError>:
  *         (To be called at end of DMA Abort procedure following error occurrence).
  * @param  hdma DMA handle.
  * @retval None
  */
static void UART_DMAAbortOnError(DMA_HandleTypeDef *hdma)
{
 8001f30:	b508      	push	{r3, lr}
  UART_HandleTypeDef *huart = (UART_HandleTypeDef *)(hdma->Parent);
 8001f32:	6a40      	ldr	r0, [r0, #36]	@ 0x24
  huart->RxXferCount = 0U;
 8001f34:	2300      	movs	r3, #0
 8001f36:	f8a0 305a 	strh.w	r3, [r0, #90]	@ 0x5a
  huart->TxXferCount = 0U;
 8001f3a:	f8a0 3052 	strh.w	r3, [r0, #82]	@ 0x52
#if (USE_HAL_UART_REGISTER_CALLBACKS == 1)
  /*Call registered error callback*/
  huart->ErrorCallback(huart);
#else
  /*Call legacy weak error callback*/
  HAL_UART_ErrorCallback(huart);
 8001f3e:	f7ff fff5 	bl	8001f2c <HAL_UART_ErrorCallback>
#endif /* USE_HAL_UART_REGISTER_CALLBACKS */
}
 8001f42:	bd08      	pop	{r3, pc}

08001f44 <HAL_UARTEx_RxEventCallback>:
}
 8001f44:	4770      	bx	lr
 8001f46:	bf00      	nop

08001f48 <HAL_UART_IRQHandler>:
  uint32_t isrflags   = READ_REG(huart->Instance->ISR);
 8001f48:	6803      	ldr	r3, [r0, #0]
 8001f4a:	69da      	ldr	r2, [r3, #28]
  uint32_t cr1its     = READ_REG(huart->Instance->CR1);
 8001f4c:	6819      	ldr	r1, [r3, #0]
  errorflags = (isrflags & (uint32_t)(USART_ISR_PE | USART_ISR_FE | USART_ISR_ORE | USART_ISR_NE | USART_ISR_RTOF));
 8001f4e:	f640 0c0f 	movw	ip, #2063	@ 0x80f
  if (errorflags == 0U)
 8001f52:	ea12 0f0c 	tst.w	r2, ip
{
 8001f56:	b570      	push	{r4, r5, r6, lr}
  uint32_t cr3its     = READ_REG(huart->Instance->CR3);
 8001f58:	689d      	ldr	r5, [r3, #8]
{
 8001f5a:	4604      	mov	r4, r0
  if (errorflags == 0U)
 8001f5c:	d17f      	bne.n	800205e <HAL_UART_IRQHandler+0x116>
    if (((isrflags & USART_ISR_RXNE) != 0U)
 8001f5e:	0696      	lsls	r6, r2, #26
 8001f60:	d502      	bpl.n	8001f68 <HAL_UART_IRQHandler+0x20>
        && ((cr1its & USART_CR1_RXNEIE) != 0U))
 8001f62:	068e      	lsls	r6, r1, #26
 8001f64:	f100 80fc 	bmi.w	8002160 <HAL_UART_IRQHandler+0x218>
  if ((huart->ReceptionType == HAL_UART_RECEPTION_TOIDLE)
 8001f68:	6e20      	ldr	r0, [r4, #96]	@ 0x60
 8001f6a:	2801      	cmp	r0, #1
 8001f6c:	d024      	beq.n	8001fb8 <HAL_UART_IRQHandler+0x70>
  if (((isrflags & USART_ISR_WUF) != 0U) && ((cr3its & USART_CR3_WUFIE) != 0U))
 8001f6e:	02d6      	lsls	r6, r2, #11
 8001f70:	d502      	bpl.n	8001f78 <HAL_UART_IRQHandler+0x30>
 8001f72:	0268      	lsls	r0, r5, #9
 8001f74:	f100 80f9 	bmi.w	800216a <HAL_UART_IRQHandler+0x222>
  if (((isrflags & USART_ISR_TXE) != 0U)
 8001f78:	0616      	lsls	r6, r2, #24
 8001f7a:	d414      	bmi.n	8001fa6 <HAL_UART_IRQHandler+0x5e>
  if (((isrflags & USART_ISR_TC) != 0U) && ((cr1its & USART_CR1_TCIE) != 0U))
 8001f7c:	0650      	lsls	r0, r2, #25
 8001f7e:	d501      	bpl.n	8001f84 <HAL_UART_IRQHandler+0x3c>
 8001f80:	064a      	lsls	r2, r1, #25
 8001f82:	d400      	bmi.n	8001f86 <HAL_UART_IRQHandler+0x3e>
}
 8001f84:	bd70      	pop	{r4, r5, r6, pc}
 */
__STATIC_FORCEINLINE uint32_t __LDREXW(volatile uint32_t *addr)
{
    uint32_t result;

   __ASM volatile ("ldrex %0, %1" : "=r" (result) : "Q" (*addr) );
 8001f86:	e853 2f00 	ldrex	r2, [r3]
  * @retval None
  */
static void UART_EndTransmit_IT(UART_HandleTypeDef *huart)
{
  /* Disable the UART Transmit Complete Interrupt */
  ATOMIC_CLEAR_BIT(huart->Instance->CR1, USART_CR1_TCIE);
 8001f8a:	f022 0240 	bic.w	r2, r2, #64	@ 0x40
 */
__STATIC_FORCEINLINE uint32_t __STREXW(uint32_t value, volatile uint32_t *addr)
{
   uint32_t result;

   __ASM volatile ("strex %0, %2, %1" : "=&r" (result), "=Q" (*addr) : "r" (value) );
 8001f8e:	e843 2100 	strex	r1, r2, [r3]
 8001f92:	2900      	cmp	r1, #0
 8001f94:	d1f7      	bne.n	8001f86 <HAL_UART_IRQHandler+0x3e>

  /* Tx process is ended, restore huart->gState to Ready */
  huart->gState = HAL_UART_STATE_READY;
 8001f96:	2220      	movs	r2, #32

  /* Cleat TxISR function pointer */
  huart->TxISR = NULL;
 8001f98:	2300      	movs	r3, #0
  huart->gState = HAL_UART_STATE_READY;
 8001f9a:	67e2      	str	r2, [r4, #124]	@ 0x7c
  huart->TxISR = NULL;
 8001f9c:	66e3      	str	r3, [r4, #108]	@ 0x6c
#if (USE_HAL_UART_REGISTER_CALLBACKS == 1)
  /*Call registered Tx complete callback*/
  huart->TxCpltCallback(huart);
#else
  /*Call legacy weak Tx complete callback*/
  HAL_UART_TxCpltCallback(huart);
 8001f9e:	4620      	mov	r0, r4
 8001fa0:	f7ff ffc0 	bl	8001f24 <HAL_UART_TxCpltCallback>
}
 8001fa4:	bd70      	pop	{r4, r5, r6, pc}
      && ((cr1its & USART_CR1_TXEIE) != 0U))
 8001fa6:	060d      	lsls	r5, r1, #24
 8001fa8:	d5e8      	bpl.n	8001f7c <HAL_UART_IRQHandler+0x34>
    if (huart->TxISR != NULL)
 8001faa:	6ee3      	ldr	r3, [r4, #108]	@ 0x6c
 8001fac:	2b00      	cmp	r3, #0
 8001fae:	d0e9      	beq.n	8001f84 <HAL_UART_IRQHandler+0x3c>
      huart->TxISR(huart);
 8001fb0:	4620      	mov	r0, r4
}
 8001fb2:	e8bd 4070 	ldmia.w	sp!, {r4, r5, r6, lr}
      huart->TxISR(huart);
 8001fb6:	4718      	bx	r3
      && ((isrflags & USART_ISR_IDLE) != 0U)
 8001fb8:	06d6      	lsls	r6, r2, #27
 8001fba:	d5d8      	bpl.n	8001f6e <HAL_UART_IRQHandler+0x26>
      && ((cr1its & USART_ISR_IDLE) != 0U))
 8001fbc:	06c8      	lsls	r0, r1, #27
 8001fbe:	d5d6      	bpl.n	8001f6e <HAL_UART_IRQHandler+0x26>
    __HAL_UART_CLEAR_FLAG(huart, UART_CLEAR_IDLEF);
 8001fc0:	2210      	movs	r2, #16
 8001fc2:	621a      	str	r2, [r3, #32]
    if (HAL_IS_BIT_SET(huart->Instance->CR3, USART_CR3_DMAR))
 8001fc4:	689a      	ldr	r2, [r3, #8]
 8001fc6:	0652      	lsls	r2, r2, #25
 8001fc8:	f140 812d 	bpl.w	8002226 <HAL_UART_IRQHandler+0x2de>
      uint16_t nb_remaining_rx_data = (uint16_t) __HAL_DMA_GET_COUNTER(huart->hdmarx);
 8001fcc:	6f60      	ldr	r0, [r4, #116]	@ 0x74
 8001fce:	6802      	ldr	r2, [r0, #0]
 8001fd0:	6852      	ldr	r2, [r2, #4]
 8001fd2:	b292      	uxth	r2, r2
      if ((nb_remaining_rx_data > 0U)
 8001fd4:	2a00      	cmp	r2, #0
 8001fd6:	d0d5      	beq.n	8001f84 <HAL_UART_IRQHandler+0x3c>
          && (nb_remaining_rx_data < huart->RxXferSize))
 8001fd8:	f8b4 1058 	ldrh.w	r1, [r4, #88]	@ 0x58
 8001fdc:	4291      	cmp	r1, r2
 8001fde:	d9d1      	bls.n	8001f84 <HAL_UART_IRQHandler+0x3c>
        huart->RxXferCount = nb_remaining_rx_data;
 8001fe0:	f8a4 205a 	strh.w	r2, [r4, #90]	@ 0x5a
        if (huart->hdmarx->Init.Mode != DMA_CIRCULAR)
 8001fe4:	6982      	ldr	r2, [r0, #24]
 8001fe6:	2a20      	cmp	r2, #32
 8001fe8:	d02f      	beq.n	800204a <HAL_UART_IRQHandler+0x102>
   __ASM volatile ("ldrex %0, %1" : "=r" (result) : "Q" (*addr) );
 8001fea:	e853 2f00 	ldrex	r2, [r3]
          ATOMIC_CLEAR_BIT(huart->Instance->CR1, USART_CR1_PEIE);
 8001fee:	f422 7280 	bic.w	r2, r2, #256	@ 0x100
   __ASM volatile ("strex %0, %2, %1" : "=&r" (result), "=Q" (*addr) : "r" (value) );
 8001ff2:	e843 2100 	strex	r1, r2, [r3]
 8001ff6:	2900      	cmp	r1, #0
 8001ff8:	d1f7      	bne.n	8001fea <HAL_UART_IRQHandler+0xa2>
   __ASM volatile ("ldrex %0, %1" : "=r" (result) : "Q" (*addr) );
 8001ffa:	f103 0208 	add.w	r2, r3, #8
 8001ffe:	e852 2f00 	ldrex	r2, [r2]
          ATOMIC_CLEAR_BIT(huart->Instance->CR3, USART_CR3_EIE);
 8002002:	f022 0201 	bic.w	r2, r2, #1
   __ASM volatile ("strex %0, %2, %1" : "=&r" (result), "=Q" (*addr) : "r" (value) );
 8002006:	f103 0508 	add.w	r5, r3, #8
 800200a:	e845 2100 	strex	r1, r2, [r5]
 800200e:	2900      	cmp	r1, #0
 8002010:	d1f3      	bne.n	8001ffa <HAL_UART_IRQHandler+0xb2>
   __ASM volatile ("ldrex %0, %1" : "=r" (result) : "Q" (*addr) );
 8002012:	f103 0208 	add.w	r2, r3, #8
 8002016:	e852 2f00 	ldrex	r2, [r2]
          ATOMIC_CLEAR_BIT(huart->Instance->CR3, USART_CR3_DMAR);
 800201a:	f022 0240 	bic.w	r2, r2, #64	@ 0x40
   __ASM volatile ("strex %0, %2, %1" : "=&r" (result), "=Q" (*addr) : "r" (value) );
 800201e:	f103 0508 	add.w	r5, r3, #8
 8002022:	e845 2100 	strex	r1, r2, [r5]
 8002026:	2900      	cmp	r1, #0
 8002028:	d1f3      	bne.n	8002012 <HAL_UART_IRQHandler+0xca>
          huart->RxState = HAL_UART_STATE_READY;
 800202a:	2220      	movs	r2, #32
 800202c:	f8c4 2080 	str.w	r2, [r4, #128]	@ 0x80
          huart->ReceptionType = HAL_UART_RECEPTION_STANDARD;
 8002030:	6621      	str	r1, [r4, #96]	@ 0x60
   __ASM volatile ("ldrex %0, %1" : "=r" (result) : "Q" (*addr) );
 8002032:	e853 2f00 	ldrex	r2, [r3]
          ATOMIC_CLEAR_BIT(huart->Instance->CR1, USART_CR1_IDLEIE);
 8002036:	f022 0210 	bic.w	r2, r2, #16
   __ASM volatile ("strex %0, %2, %1" : "=&r" (result), "=Q" (*addr) : "r" (value) );
 800203a:	e843 2100 	strex	r1, r2, [r3]
 800203e:	2900      	cmp	r1, #0
 8002040:	d1f7      	bne.n	8002032 <HAL_UART_IRQHandler+0xea>
          (void)HAL_DMA_Abort(huart->hdmarx);
 8002042:	f7fe f97f 	bl	8000344 <HAL_DMA_Abort>
        HAL_UARTEx_RxEventCallback(huart, (huart->RxXferSize - huart->RxXferCount));
 8002046:	f8b4 1058 	ldrh.w	r1, [r4, #88]	@ 0x58
        huart->RxEventType = HAL_UART_RXEVENT_IDLE;
 800204a:	2302      	movs	r3, #2
 800204c:	6663      	str	r3, [r4, #100]	@ 0x64
        HAL_UARTEx_RxEventCallback(huart, (huart->RxXferSize - huart->RxXferCount));
 800204e:	f8b4 305a 	ldrh.w	r3, [r4, #90]	@ 0x5a
 8002052:	1ac9      	subs	r1, r1, r3
 8002054:	4620      	mov	r0, r4
 8002056:	b289      	uxth	r1, r1
 8002058:	f7ff ff74 	bl	8001f44 <HAL_UARTEx_RxEventCallback>
}
 800205c:	bd70      	pop	{r4, r5, r6, pc}
      && (((cr3its & USART_CR3_EIE) != 0U)
 800205e:	f015 0601 	ands.w	r6, r5, #1
 8002062:	f040 80c1 	bne.w	80021e8 <HAL_UART_IRQHandler+0x2a0>
          || ((cr1its & (USART_CR1_RXNEIE | USART_CR1_PEIE | USART_CR1_RTOIE)) != 0U)))
 8002066:	488e      	ldr	r0, [pc, #568]	@ (80022a0 <HAL_UART_IRQHandler+0x358>)
 8002068:	4201      	tst	r1, r0
 800206a:	f43f af7d 	beq.w	8001f68 <HAL_UART_IRQHandler+0x20>
    if (((isrflags & USART_ISR_PE) != 0U) && ((cr1its & USART_CR1_PEIE) != 0U))
 800206e:	07d5      	lsls	r5, r2, #31
 8002070:	d50f      	bpl.n	8002092 <HAL_UART_IRQHandler+0x14a>
 8002072:	05c8      	lsls	r0, r1, #23
 8002074:	f140 80d3 	bpl.w	800221e <HAL_UART_IRQHandler+0x2d6>
      __HAL_UART_CLEAR_FLAG(huart, UART_CLEAR_PEF);
 8002078:	2001      	movs	r0, #1
 800207a:	6218      	str	r0, [r3, #32]
      huart->ErrorCode |= HAL_UART_ERROR_PE;
 800207c:	f8d4 0084 	ldr.w	r0, [r4, #132]	@ 0x84
 8002080:	f040 0001 	orr.w	r0, r0, #1
 8002084:	f8c4 0084 	str.w	r0, [r4, #132]	@ 0x84
    if (((isrflags & USART_ISR_FE) != 0U) && ((cr3its & USART_CR3_EIE) != 0U))
 8002088:	0790      	lsls	r0, r2, #30
 800208a:	d57b      	bpl.n	8002184 <HAL_UART_IRQHandler+0x23c>
 800208c:	2e00      	cmp	r6, #0
 800208e:	f040 80af 	bne.w	80021f0 <HAL_UART_IRQHandler+0x2a8>
    if (((isrflags & USART_ISR_NE) != 0U) && ((cr3its & USART_CR3_EIE) != 0U))
 8002092:	0755      	lsls	r5, r2, #29
 8002094:	f140 808e 	bpl.w	80021b4 <HAL_UART_IRQHandler+0x26c>
    if (((isrflags & USART_ISR_ORE) != 0U)
 8002098:	0716      	lsls	r6, r2, #28
 800209a:	f100 80bd 	bmi.w	8002218 <HAL_UART_IRQHandler+0x2d0>
    if (((isrflags & USART_ISR_RTOF) != 0U) && ((cr1its & USART_CR1_RTOIE) != 0U))
 800209e:	0516      	lsls	r6, r2, #20
 80020a0:	d50a      	bpl.n	80020b8 <HAL_UART_IRQHandler+0x170>
 80020a2:	014d      	lsls	r5, r1, #5
 80020a4:	d508      	bpl.n	80020b8 <HAL_UART_IRQHandler+0x170>
      __HAL_UART_CLEAR_FLAG(huart, UART_CLEAR_RTOF);
 80020a6:	f44f 6000 	mov.w	r0, #2048	@ 0x800
 80020aa:	6218      	str	r0, [r3, #32]
      huart->ErrorCode |= HAL_UART_ERROR_RTO;
 80020ac:	f8d4 0084 	ldr.w	r0, [r4, #132]	@ 0x84
 80020b0:	f040 0020 	orr.w	r0, r0, #32
 80020b4:	f8c4 0084 	str.w	r0, [r4, #132]	@ 0x84
    if (huart->ErrorCode != HAL_UART_ERROR_NONE)
 80020b8:	f8d4 0084 	ldr.w	r0, [r4, #132]	@ 0x84
 80020bc:	2800      	cmp	r0, #0
 80020be:	f43f af61 	beq.w	8001f84 <HAL_UART_IRQHandler+0x3c>
      if (((isrflags & USART_ISR_RXNE) != 0U)
 80020c2:	0690      	lsls	r0, r2, #26
 80020c4:	d506      	bpl.n	80020d4 <HAL_UART_IRQHandler+0x18c>
          && ((cr1its & USART_CR1_RXNEIE) != 0U))
 80020c6:	0689      	lsls	r1, r1, #26
 80020c8:	d504      	bpl.n	80020d4 <HAL_UART_IRQHandler+0x18c>
        if (huart->RxISR != NULL)
 80020ca:	6ea2      	ldr	r2, [r4, #104]	@ 0x68
 80020cc:	b112      	cbz	r2, 80020d4 <HAL_UART_IRQHandler+0x18c>
          huart->RxISR(huart);
 80020ce:	4620      	mov	r0, r4
 80020d0:	4790      	blx	r2
      if ((HAL_IS_BIT_SET(huart->Instance->CR3, USART_CR3_DMAR)) ||
 80020d2:	6823      	ldr	r3, [r4, #0]
      errorcode = huart->ErrorCode;
 80020d4:	f8d4 1084 	ldr.w	r1, [r4, #132]	@ 0x84
      if ((HAL_IS_BIT_SET(huart->Instance->CR3, USART_CR3_DMAR)) ||
 80020d8:	689a      	ldr	r2, [r3, #8]
          ((errorcode & (HAL_UART_ERROR_RTO | HAL_UART_ERROR_ORE)) != 0U))
 80020da:	f001 0128 	and.w	r1, r1, #40	@ 0x28
      if ((HAL_IS_BIT_SET(huart->Instance->CR3, USART_CR3_DMAR)) ||
 80020de:	f002 0240 	and.w	r2, r2, #64	@ 0x40
 80020e2:	ea52 0501 	orrs.w	r5, r2, r1
 80020e6:	f000 80d5 	beq.w	8002294 <HAL_UART_IRQHandler+0x34c>
   __ASM volatile ("ldrex %0, %1" : "=r" (result) : "Q" (*addr) );
 80020ea:	e853 2f00 	ldrex	r2, [r3]
  ATOMIC_CLEAR_BIT(huart->Instance->CR1, (USART_CR1_RXNEIE | USART_CR1_PEIE));
 80020ee:	f422 7290 	bic.w	r2, r2, #288	@ 0x120
   __ASM volatile ("strex %0, %2, %1" : "=&r" (result), "=Q" (*addr) : "r" (value) );
 80020f2:	e843 2100 	strex	r1, r2, [r3]
 80020f6:	2900      	cmp	r1, #0
 80020f8:	d1f7      	bne.n	80020ea <HAL_UART_IRQHandler+0x1a2>
   __ASM volatile ("ldrex %0, %1" : "=r" (result) : "Q" (*addr) );
 80020fa:	f103 0208 	add.w	r2, r3, #8
 80020fe:	e852 2f00 	ldrex	r2, [r2]
  ATOMIC_CLEAR_BIT(huart->Instance->CR3, USART_CR3_EIE);
 8002102:	f022 0201 	bic.w	r2, r2, #1
   __ASM volatile ("strex %0, %2, %1" : "=&r" (result), "=Q" (*addr) : "r" (value) );
 8002106:	f103 0008 	add.w	r0, r3, #8
 800210a:	e840 2100 	strex	r1, r2, [r0]
 800210e:	2900      	cmp	r1, #0
 8002110:	d1f3      	bne.n	80020fa <HAL_UART_IRQHandler+0x1b2>
  if (huart->ReceptionType == HAL_UART_RECEPTION_TOIDLE)
 8002112:	6e22      	ldr	r2, [r4, #96]	@ 0x60
 8002114:	2a01      	cmp	r2, #1
 8002116:	d056      	beq.n	80021c6 <HAL_UART_IRQHandler+0x27e>
  huart->ReceptionType = HAL_UART_RECEPTION_STANDARD;
 8002118:	2200      	movs	r2, #0
  huart->RxState = HAL_UART_STATE_READY;
 800211a:	2120      	movs	r1, #32
 800211c:	f8c4 1080 	str.w	r1, [r4, #128]	@ 0x80
  huart->ReceptionType = HAL_UART_RECEPTION_STANDARD;
 8002120:	6622      	str	r2, [r4, #96]	@ 0x60
        if (HAL_IS_BIT_SET(huart->Instance->CR3, USART_CR3_DMAR))
 8002122:	6899      	ldr	r1, [r3, #8]
  huart->RxISR = NULL;
 8002124:	66a2      	str	r2, [r4, #104]	@ 0x68
        if (HAL_IS_BIT_SET(huart->Instance->CR3, USART_CR3_DMAR))
 8002126:	064a      	lsls	r2, r1, #25
 8002128:	d56f      	bpl.n	800220a <HAL_UART_IRQHandler+0x2c2>
   __ASM volatile ("ldrex %0, %1" : "=r" (result) : "Q" (*addr) );
 800212a:	f103 0208 	add.w	r2, r3, #8
 800212e:	e852 2f00 	ldrex	r2, [r2]
          ATOMIC_CLEAR_BIT(huart->Instance->CR3, USART_CR3_DMAR);
 8002132:	f022 0240 	bic.w	r2, r2, #64	@ 0x40
   __ASM volatile ("strex %0, %2, %1" : "=&r" (result), "=Q" (*addr) : "r" (value) );
 8002136:	f103 0008 	add.w	r0, r3, #8
 800213a:	e840 2100 	strex	r1, r2, [r0]
 800213e:	2900      	cmp	r1, #0
 8002140:	d1f3      	bne.n	800212a <HAL_UART_IRQHandler+0x1e2>
          if (huart->hdmarx != NULL)
 8002142:	6f60      	ldr	r0, [r4, #116]	@ 0x74
 8002144:	2800      	cmp	r0, #0
 8002146:	d060      	beq.n	800220a <HAL_UART_IRQHandler+0x2c2>
            huart->hdmarx->XferAbortCallback = UART_DMAAbortOnError;
 8002148:	4b56      	ldr	r3, [pc, #344]	@ (80022a4 <HAL_UART_IRQHandler+0x35c>)
 800214a:	6343      	str	r3, [r0, #52]	@ 0x34
            if (HAL_DMA_Abort_IT(huart->hdmarx) != HAL_OK)
 800214c:	f7fe f91e 	bl	800038c <HAL_DMA_Abort_IT>
 8002150:	2800      	cmp	r0, #0
 8002152:	f43f af17 	beq.w	8001f84 <HAL_UART_IRQHandler+0x3c>
              huart->hdmarx->XferAbortCallback(huart->hdmarx);
 8002156:	6f60      	ldr	r0, [r4, #116]	@ 0x74
}
 8002158:	e8bd 4070 	ldmia.w	sp!, {r4, r5, r6, lr}
              huart->hdmarx->XferAbortCallback(huart->hdmarx);
 800215c:	6b43      	ldr	r3, [r0, #52]	@ 0x34
 800215e:	4718      	bx	r3
      if (huart->RxISR != NULL)
 8002160:	6e83      	ldr	r3, [r0, #104]	@ 0x68
 8002162:	2b00      	cmp	r3, #0
 8002164:	f47f af25 	bne.w	8001fb2 <HAL_UART_IRQHandler+0x6a>
 8002168:	e70c      	b.n	8001f84 <HAL_UART_IRQHandler+0x3c>
    __HAL_UART_CLEAR_FLAG(huart, UART_CLEAR_WUF);
 800216a:	f44f 1280 	mov.w	r2, #1048576	@ 0x100000
    HAL_UARTEx_WakeupCallback(huart);
 800216e:	4620      	mov	r0, r4
    __HAL_UART_CLEAR_FLAG(huart, UART_CLEAR_WUF);
 8002170:	621a      	str	r2, [r3, #32]
}
 8002172:	e8bd 4070 	ldmia.w	sp!, {r4, r5, r6, lr}
    HAL_UARTEx_WakeupCallback(huart);
 8002176:	f000 bc37 	b.w	80029e8 <HAL_UARTEx_WakeupCallback>
    if (((isrflags & USART_ISR_PE) != 0U) && ((cr1its & USART_CR1_PEIE) != 0U))
 800217a:	05c8      	lsls	r0, r1, #23
 800217c:	f53f af7c 	bmi.w	8002078 <HAL_UART_IRQHandler+0x130>
    if (((isrflags & USART_ISR_FE) != 0U) && ((cr3its & USART_CR3_EIE) != 0U))
 8002180:	0795      	lsls	r5, r2, #30
 8002182:	d435      	bmi.n	80021f0 <HAL_UART_IRQHandler+0x2a8>
    if (((isrflags & USART_ISR_NE) != 0U) && ((cr3its & USART_CR3_EIE) != 0U))
 8002184:	0750      	lsls	r0, r2, #29
 8002186:	d515      	bpl.n	80021b4 <HAL_UART_IRQHandler+0x26c>
 8002188:	2e00      	cmp	r6, #0
 800218a:	d085      	beq.n	8002098 <HAL_UART_IRQHandler+0x150>
      __HAL_UART_CLEAR_FLAG(huart, UART_CLEAR_NEF);
 800218c:	2004      	movs	r0, #4
 800218e:	6218      	str	r0, [r3, #32]
      huart->ErrorCode |= HAL_UART_ERROR_NE;
 8002190:	f8d4 0084 	ldr.w	r0, [r4, #132]	@ 0x84
    if (((isrflags & USART_ISR_ORE) != 0U)
 8002194:	0715      	lsls	r5, r2, #28
      huart->ErrorCode |= HAL_UART_ERROR_NE;
 8002196:	f040 0002 	orr.w	r0, r0, #2
 800219a:	f8c4 0084 	str.w	r0, [r4, #132]	@ 0x84
    if (((isrflags & USART_ISR_ORE) != 0U)
 800219e:	f57f af7e 	bpl.w	800209e <HAL_UART_IRQHandler+0x156>
      __HAL_UART_CLEAR_FLAG(huart, UART_CLEAR_OREF);
 80021a2:	2008      	movs	r0, #8
 80021a4:	6218      	str	r0, [r3, #32]
      huart->ErrorCode |= HAL_UART_ERROR_ORE;
 80021a6:	f8d4 0084 	ldr.w	r0, [r4, #132]	@ 0x84
 80021aa:	f040 0008 	orr.w	r0, r0, #8
 80021ae:	f8c4 0084 	str.w	r0, [r4, #132]	@ 0x84
 80021b2:	e774      	b.n	800209e <HAL_UART_IRQHandler+0x156>
    if (((isrflags & USART_ISR_ORE) != 0U)
 80021b4:	0710      	lsls	r0, r2, #28
 80021b6:	f57f af72 	bpl.w	800209e <HAL_UART_IRQHandler+0x156>
        && (((cr1its & USART_CR1_RXNEIE) != 0U) ||
 80021ba:	f001 0020 	and.w	r0, r1, #32
 80021be:	4330      	orrs	r0, r6
 80021c0:	f43f af6d 	beq.w	800209e <HAL_UART_IRQHandler+0x156>
 80021c4:	e7ed      	b.n	80021a2 <HAL_UART_IRQHandler+0x25a>
   __ASM volatile ("ldrex %0, %1" : "=r" (result) : "Q" (*addr) );
 80021c6:	e853 2f00 	ldrex	r2, [r3]
    ATOMIC_CLEAR_BIT(huart->Instance->CR1, USART_CR1_IDLEIE);
 80021ca:	f022 0210 	bic.w	r2, r2, #16
   __ASM volatile ("strex %0, %2, %1" : "=&r" (result), "=Q" (*addr) : "r" (value) );
 80021ce:	e843 2100 	strex	r1, r2, [r3]
 80021d2:	2900      	cmp	r1, #0
 80021d4:	d0a0      	beq.n	8002118 <HAL_UART_IRQHandler+0x1d0>
   __ASM volatile ("ldrex %0, %1" : "=r" (result) : "Q" (*addr) );
 80021d6:	e853 2f00 	ldrex	r2, [r3]
 80021da:	f022 0210 	bic.w	r2, r2, #16
   __ASM volatile ("strex %0, %2, %1" : "=&r" (result), "=Q" (*addr) : "r" (value) );
 80021de:	e843 2100 	strex	r1, r2, [r3]
 80021e2:	2900      	cmp	r1, #0
 80021e4:	d1ef      	bne.n	80021c6 <HAL_UART_IRQHandler+0x27e>
 80021e6:	e797      	b.n	8002118 <HAL_UART_IRQHandler+0x1d0>
    if (((isrflags & USART_ISR_PE) != 0U) && ((cr1its & USART_CR1_PEIE) != 0U))
 80021e8:	07d5      	lsls	r5, r2, #31
 80021ea:	d4c6      	bmi.n	800217a <HAL_UART_IRQHandler+0x232>
    if (((isrflags & USART_ISR_FE) != 0U) && ((cr3its & USART_CR3_EIE) != 0U))
 80021ec:	0790      	lsls	r0, r2, #30
 80021ee:	d510      	bpl.n	8002212 <HAL_UART_IRQHandler+0x2ca>
      __HAL_UART_CLEAR_FLAG(huart, UART_CLEAR_FEF);
 80021f0:	2002      	movs	r0, #2
 80021f2:	6218      	str	r0, [r3, #32]
      huart->ErrorCode |= HAL_UART_ERROR_FE;
 80021f4:	f8d4 0084 	ldr.w	r0, [r4, #132]	@ 0x84
    if (((isrflags & USART_ISR_NE) != 0U) && ((cr3its & USART_CR3_EIE) != 0U))
 80021f8:	0756      	lsls	r6, r2, #29
      huart->ErrorCode |= HAL_UART_ERROR_FE;
 80021fa:	f040 0004 	orr.w	r0, r0, #4
 80021fe:	f8c4 0084 	str.w	r0, [r4, #132]	@ 0x84
    if (((isrflags & USART_ISR_NE) != 0U) && ((cr3its & USART_CR3_EIE) != 0U))
 8002202:	d4c3      	bmi.n	800218c <HAL_UART_IRQHandler+0x244>
    if (((isrflags & USART_ISR_ORE) != 0U)
 8002204:	0710      	lsls	r0, r2, #28
 8002206:	d4cc      	bmi.n	80021a2 <HAL_UART_IRQHandler+0x25a>
 8002208:	e749      	b.n	800209e <HAL_UART_IRQHandler+0x156>
            HAL_UART_ErrorCallback(huart);
 800220a:	4620      	mov	r0, r4
 800220c:	f7ff fe8e 	bl	8001f2c <HAL_UART_ErrorCallback>
}
 8002210:	bd70      	pop	{r4, r5, r6, pc}
    if (((isrflags & USART_ISR_NE) != 0U) && ((cr3its & USART_CR3_EIE) != 0U))
 8002212:	0756      	lsls	r6, r2, #29
 8002214:	d4ba      	bmi.n	800218c <HAL_UART_IRQHandler+0x244>
 8002216:	e7f5      	b.n	8002204 <HAL_UART_IRQHandler+0x2bc>
        && (((cr1its & USART_CR1_RXNEIE) != 0U) ||
 8002218:	068d      	lsls	r5, r1, #26
 800221a:	d4c2      	bmi.n	80021a2 <HAL_UART_IRQHandler+0x25a>
 800221c:	e73f      	b.n	800209e <HAL_UART_IRQHandler+0x156>
    if (((isrflags & USART_ISR_FE) != 0U) && ((cr3its & USART_CR3_EIE) != 0U))
 800221e:	0795      	lsls	r5, r2, #30
 8002220:	f53f af37 	bmi.w	8002092 <HAL_UART_IRQHandler+0x14a>
 8002224:	e7ae      	b.n	8002184 <HAL_UART_IRQHandler+0x23c>
      uint16_t nb_rx_data = huart->RxXferSize - huart->RxXferCount;
 8002226:	f8b4 105a 	ldrh.w	r1, [r4, #90]	@ 0x5a
      if ((huart->RxXferCount > 0U)
 800222a:	f8b4 205a 	ldrh.w	r2, [r4, #90]	@ 0x5a
      uint16_t nb_rx_data = huart->RxXferSize - huart->RxXferCount;
 800222e:	f8b4 0058 	ldrh.w	r0, [r4, #88]	@ 0x58
      if ((huart->RxXferCount > 0U)
 8002232:	b292      	uxth	r2, r2
      uint16_t nb_rx_data = huart->RxXferSize - huart->RxXferCount;
 8002234:	b289      	uxth	r1, r1
      if ((huart->RxXferCount > 0U)
 8002236:	2a00      	cmp	r2, #0
 8002238:	f43f aea4 	beq.w	8001f84 <HAL_UART_IRQHandler+0x3c>
      uint16_t nb_rx_data = huart->RxXferSize - huart->RxXferCount;
 800223c:	1a41      	subs	r1, r0, r1
 800223e:	b289      	uxth	r1, r1
          && (nb_rx_data > 0U))
 8002240:	2900      	cmp	r1, #0
 8002242:	f43f ae9f 	beq.w	8001f84 <HAL_UART_IRQHandler+0x3c>
   __ASM volatile ("ldrex %0, %1" : "=r" (result) : "Q" (*addr) );
 8002246:	e853 2f00 	ldrex	r2, [r3]
        ATOMIC_CLEAR_BIT(huart->Instance->CR1, (USART_CR1_RXNEIE | USART_CR1_PEIE));
 800224a:	f422 7290 	bic.w	r2, r2, #288	@ 0x120
   __ASM volatile ("strex %0, %2, %1" : "=&r" (result), "=Q" (*addr) : "r" (value) );
 800224e:	e843 2000 	strex	r0, r2, [r3]
 8002252:	2800      	cmp	r0, #0
 8002254:	d1f7      	bne.n	8002246 <HAL_UART_IRQHandler+0x2fe>
   __ASM volatile ("ldrex %0, %1" : "=r" (result) : "Q" (*addr) );
 8002256:	f103 0208 	add.w	r2, r3, #8
 800225a:	e852 2f00 	ldrex	r2, [r2]
        ATOMIC_CLEAR_BIT(huart->Instance->CR3, USART_CR3_EIE);
 800225e:	f022 0201 	bic.w	r2, r2, #1
   __ASM volatile ("strex %0, %2, %1" : "=&r" (result), "=Q" (*addr) : "r" (value) );
 8002262:	f103 0508 	add.w	r5, r3, #8
 8002266:	e845 2000 	strex	r0, r2, [r5]
 800226a:	2800      	cmp	r0, #0
 800226c:	d1f3      	bne.n	8002256 <HAL_UART_IRQHandler+0x30e>
        huart->RxState = HAL_UART_STATE_READY;
 800226e:	2220      	movs	r2, #32
 8002270:	f8c4 2080 	str.w	r2, [r4, #128]	@ 0x80
        huart->RxISR = NULL;
 8002274:	66a0      	str	r0, [r4, #104]	@ 0x68
        huart->ReceptionType = HAL_UART_RECEPTION_STANDARD;
 8002276:	6620      	str	r0, [r4, #96]	@ 0x60
   __ASM volatile ("ldrex %0, %1" : "=r" (result) : "Q" (*addr) );
 8002278:	e853 2f00 	ldrex	r2, [r3]
        ATOMIC_CLEAR_BIT(huart->Instance->CR1, USART_CR1_IDLEIE);
 800227c:	f022 0210 	bic.w	r2, r2, #16
   __ASM volatile ("strex %0, %2, %1" : "=&r" (result), "=Q" (*addr) : "r" (value) );
 8002280:	e843 2000 	strex	r0, r2, [r3]
 8002284:	2800      	cmp	r0, #0
 8002286:	d1f7      	bne.n	8002278 <HAL_UART_IRQHandler+0x330>
        huart->RxEventType = HAL_UART_RXEVENT_IDLE;
 8002288:	2302      	movs	r3, #2
 800228a:	6663      	str	r3, [r4, #100]	@ 0x64
        HAL_UARTEx_RxEventCallback(huart, nb_rx_data);
 800228c:	4620      	mov	r0, r4
 800228e:	f7ff fe59 	bl	8001f44 <HAL_UARTEx_RxEventCallback>
}
 8002292:	bd70      	pop	{r4, r5, r6, pc}
        HAL_UART_ErrorCallback(huart);
 8002294:	4620      	mov	r0, r4
 8002296:	f7ff fe49 	bl	8001f2c <HAL_UART_ErrorCallback>
        huart->ErrorCode = HAL_UART_ERROR_NONE;
 800229a:	f8c4 5084 	str.w	r5, [r4, #132]	@ 0x84
}
 800229e:	bd70      	pop	{r4, r5, r6, pc}
 80022a0:	04000120 	.word	0x04000120
 80022a4:	08001f31 	.word	0x08001f31

080022a8 <UART_RxISR_16BIT.part.0>:
/**
  * @brief RX interrupt handler for 7 or 8 bits data word length .
  * @param huart UART handle.
  * @retval None
  */
static void UART_RxISR_8BIT(UART_HandleTypeDef *huart)
 80022a8:	b508      	push	{r3, lr}
 80022aa:	6803      	ldr	r3, [r0, #0]
   __ASM volatile ("ldrex %0, %1" : "=r" (result) : "Q" (*addr) );
 80022ac:	e853 2f00 	ldrex	r2, [r3]
    huart->RxXferCount--;

    if (huart->RxXferCount == 0U)
    {
      /* Disable the UART Parity Error Interrupt and RXNE interrupts */
      ATOMIC_CLEAR_BIT(huart->Instance->CR1, (USART_CR1_RXNEIE | USART_CR1_PEIE));
 80022b0:	f422 7290 	bic.w	r2, r2, #288	@ 0x120
   __ASM volatile ("strex %0, %2, %1" : "=&r" (result), "=Q" (*addr) : "r" (value) );
 80022b4:	e843 2100 	strex	r1, r2, [r3]
 80022b8:	2900      	cmp	r1, #0
 80022ba:	d1f7      	bne.n	80022ac <UART_RxISR_16BIT.part.0+0x4>
   __ASM volatile ("ldrex %0, %1" : "=r" (result) : "Q" (*addr) );
 80022bc:	f103 0208 	add.w	r2, r3, #8
 80022c0:	e852 2f00 	ldrex	r2, [r2]

      /* Disable the UART Error Interrupt: (Frame error, noise error, overrun error) */
      ATOMIC_CLEAR_BIT(huart->Instance->CR3, USART_CR3_EIE);
 80022c4:	f022 0201 	bic.w	r2, r2, #1
   __ASM volatile ("strex %0, %2, %1" : "=&r" (result), "=Q" (*addr) : "r" (value) );
 80022c8:	f103 0c08 	add.w	ip, r3, #8
 80022cc:	e84c 2100 	strex	r1, r2, [ip]
 80022d0:	2900      	cmp	r1, #0
 80022d2:	d1f3      	bne.n	80022bc <UART_RxISR_16BIT.part.0+0x14>

      /* Rx process is completed, restore huart->RxState to Ready */
      huart->RxState = HAL_UART_STATE_READY;
 80022d4:	2220      	movs	r2, #32
 80022d6:	f8c0 2080 	str.w	r2, [r0, #128]	@ 0x80

      /* Clear RxISR function pointer */
      huart->RxISR = NULL;

      /* Initialize type of RxEvent to Transfer Complete */
      huart->RxEventType = HAL_UART_RXEVENT_TC;
 80022da:	6641      	str	r1, [r0, #100]	@ 0x64

      /* Check that USART RTOEN bit is set */
      if (READ_BIT(huart->Instance->CR2, USART_CR2_RTOEN) != 0U)
 80022dc:	685a      	ldr	r2, [r3, #4]
      huart->RxISR = NULL;
 80022de:	6681      	str	r1, [r0, #104]	@ 0x68
      if (READ_BIT(huart->Instance->CR2, USART_CR2_RTOEN) != 0U)
 80022e0:	0211      	lsls	r1, r2, #8
 80022e2:	d416      	bmi.n	8002312 <UART_RxISR_16BIT.part.0+0x6a>
        ATOMIC_CLEAR_BIT(huart->Instance->CR1, USART_CR1_RTOIE);
      }

      /* Check current reception Mode :
         If Reception till IDLE event has been selected : */
      if (huart->ReceptionType == HAL_UART_RECEPTION_TOIDLE)
 80022e4:	6e02      	ldr	r2, [r0, #96]	@ 0x60
 80022e6:	2a01      	cmp	r2, #1
 80022e8:	d124      	bne.n	8002334 <UART_RxISR_16BIT.part.0+0x8c>
      {
        /* Set reception type to Standard */
        huart->ReceptionType = HAL_UART_RECEPTION_STANDARD;
 80022ea:	2200      	movs	r2, #0
 80022ec:	6602      	str	r2, [r0, #96]	@ 0x60
   __ASM volatile ("ldrex %0, %1" : "=r" (result) : "Q" (*addr) );
 80022ee:	e853 2f00 	ldrex	r2, [r3]

        /* Disable IDLE interrupt */
        ATOMIC_CLEAR_BIT(huart->Instance->CR1, USART_CR1_IDLEIE);
 80022f2:	f022 0210 	bic.w	r2, r2, #16
   __ASM volatile ("strex %0, %2, %1" : "=&r" (result), "=Q" (*addr) : "r" (value) );
 80022f6:	e843 2100 	strex	r1, r2, [r3]
 80022fa:	2900      	cmp	r1, #0
 80022fc:	d1f7      	bne.n	80022ee <UART_RxISR_16BIT.part.0+0x46>

        if (__HAL_UART_GET_FLAG(huart, UART_FLAG_IDLE) == SET)
 80022fe:	69da      	ldr	r2, [r3, #28]
#if (USE_HAL_UART_REGISTER_CALLBACKS == 1)
        /*Call registered Rx Event callback*/
        huart->RxEventCallback(huart, huart->RxXferSize);
#else
        /*Call legacy weak Rx Event callback*/
        HAL_UARTEx_RxEventCallback(huart, huart->RxXferSize);
 8002300:	f8b0 1058 	ldrh.w	r1, [r0, #88]	@ 0x58
        if (__HAL_UART_GET_FLAG(huart, UART_FLAG_IDLE) == SET)
 8002304:	06d2      	lsls	r2, r2, #27
          __HAL_UART_CLEAR_FLAG(huart, UART_CLEAR_IDLEF);
 8002306:	bf44      	itt	mi
 8002308:	2210      	movmi	r2, #16
 800230a:	621a      	strmi	r2, [r3, #32]
        HAL_UARTEx_RxEventCallback(huart, huart->RxXferSize);
 800230c:	f7ff fe1a 	bl	8001f44 <HAL_UARTEx_RxEventCallback>
  else
  {
    /* Clear RXNE interrupt flag */
    __HAL_UART_SEND_REQ(huart, UART_RXDATA_FLUSH_REQUEST);
  }
}
 8002310:	bd08      	pop	{r3, pc}
   __ASM volatile ("ldrex %0, %1" : "=r" (result) : "Q" (*addr) );
 8002312:	e853 2f00 	ldrex	r2, [r3]
        ATOMIC_CLEAR_BIT(huart->Instance->CR1, USART_CR1_RTOIE);
 8002316:	f022 6280 	bic.w	r2, r2, #67108864	@ 0x4000000
   __ASM volatile ("strex %0, %2, %1" : "=&r" (result), "=Q" (*addr) : "r" (value) );
 800231a:	e843 2100 	strex	r1, r2, [r3]
 800231e:	2900      	cmp	r1, #0
 8002320:	d0e0      	beq.n	80022e4 <UART_RxISR_16BIT.part.0+0x3c>
   __ASM volatile ("ldrex %0, %1" : "=r" (result) : "Q" (*addr) );
 8002322:	e853 2f00 	ldrex	r2, [r3]
 8002326:	f022 6280 	bic.w	r2, r2, #67108864	@ 0x4000000
   __ASM volatile ("strex %0, %2, %1" : "=&r" (result), "=Q" (*addr) : "r" (value) );
 800232a:	e843 2100 	strex	r1, r2, [r3]
 800232e:	2900      	cmp	r1, #0
 8002330:	d1ef      	bne.n	8002312 <UART_RxISR_16BIT.part.0+0x6a>
 8002332:	e7d7      	b.n	80022e4 <UART_RxISR_16BIT.part.0+0x3c>
        HAL_UART_RxCpltCallback(huart);
 8002334:	f7ff fdf8 	bl	8001f28 <HAL_UART_RxCpltCallback>
}
 8002338:	bd08      	pop	{r3, pc}
 800233a:	bf00      	nop

0800233c <UART_RxISR_16BIT>:
  *         interruptions have been enabled by HAL_UART_Receive_IT()
  * @param huart UART handle.
  * @retval None
  */
static void UART_RxISR_16BIT(UART_HandleTypeDef *huart)
{
 800233c:	b410      	push	{r4}
  uint16_t *tmp;
  uint16_t uhMask = huart->Mask;
  uint16_t  uhdata;

  /* Check that a Rx process is ongoing */
  if (huart->RxState == HAL_UART_STATE_BUSY_RX)
 800233e:	f8d0 4080 	ldr.w	r4, [r0, #128]	@ 0x80
  uint16_t uhMask = huart->Mask;
 8002342:	f8b0 105c 	ldrh.w	r1, [r0, #92]	@ 0x5c
  {
    uhdata = (uint16_t) READ_REG(huart->Instance->RDR);
 8002346:	6802      	ldr	r2, [r0, #0]
  if (huart->RxState == HAL_UART_STATE_BUSY_RX)
 8002348:	2c22      	cmp	r4, #34	@ 0x22
 800234a:	d006      	beq.n	800235a <UART_RxISR_16BIT+0x1e>
    }
  }
  else
  {
    /* Clear RXNE interrupt flag */
    __HAL_UART_SEND_REQ(huart, UART_RXDATA_FLUSH_REQUEST);
 800234c:	6993      	ldr	r3, [r2, #24]
 800234e:	f043 0308 	orr.w	r3, r3, #8
 8002352:	6193      	str	r3, [r2, #24]
  }
}
 8002354:	f85d 4b04 	ldr.w	r4, [sp], #4
 8002358:	4770      	bx	lr
    uhdata = (uint16_t) READ_REG(huart->Instance->RDR);
 800235a:	8c92      	ldrh	r2, [r2, #36]	@ 0x24
    *tmp = (uint16_t)(uhdata & uhMask);
 800235c:	6d44      	ldr	r4, [r0, #84]	@ 0x54
 800235e:	4011      	ands	r1, r2
 8002360:	f824 1b02 	strh.w	r1, [r4], #2
    huart->RxXferCount--;
 8002364:	f8b0 205a 	ldrh.w	r2, [r0, #90]	@ 0x5a
    huart->pRxBuffPtr += 2U;
 8002368:	6544      	str	r4, [r0, #84]	@ 0x54
    huart->RxXferCount--;
 800236a:	3a01      	subs	r2, #1
 800236c:	b292      	uxth	r2, r2
 800236e:	f8a0 205a 	strh.w	r2, [r0, #90]	@ 0x5a
    if (huart->RxXferCount == 0U)
 8002372:	f8b0 305a 	ldrh.w	r3, [r0, #90]	@ 0x5a
 8002376:	b29b      	uxth	r3, r3
 8002378:	2b00      	cmp	r3, #0
 800237a:	d1eb      	bne.n	8002354 <UART_RxISR_16BIT+0x18>
}
 800237c:	f85d 4b04 	ldr.w	r4, [sp], #4
 8002380:	f7ff bf92 	b.w	80022a8 <UART_RxISR_16BIT.part.0>

08002384 <UART_RxISR_8BIT>:
{
 8002384:	b410      	push	{r4}
  if (huart->RxState == HAL_UART_STATE_BUSY_RX)
 8002386:	f8d0 4080 	ldr.w	r4, [r0, #128]	@ 0x80
  uint16_t uhMask = huart->Mask;
 800238a:	f8b0 105c 	ldrh.w	r1, [r0, #92]	@ 0x5c
    uhdata = (uint16_t) READ_REG(huart->Instance->RDR);
 800238e:	6802      	ldr	r2, [r0, #0]
  if (huart->RxState == HAL_UART_STATE_BUSY_RX)
 8002390:	2c22      	cmp	r4, #34	@ 0x22
 8002392:	d006      	beq.n	80023a2 <UART_RxISR_8BIT+0x1e>
    __HAL_UART_SEND_REQ(huart, UART_RXDATA_FLUSH_REQUEST);
 8002394:	6993      	ldr	r3, [r2, #24]
 8002396:	f043 0308 	orr.w	r3, r3, #8
 800239a:	6193      	str	r3, [r2, #24]
}
 800239c:	f85d 4b04 	ldr.w	r4, [sp], #4
 80023a0:	4770      	bx	lr
    uhdata = (uint16_t) READ_REG(huart->Instance->RDR);
 80023a2:	8c94      	ldrh	r4, [r2, #36]	@ 0x24
    *huart->pRxBuffPtr = (uint8_t)(uhdata & (uint8_t)uhMask);
 80023a4:	6d42      	ldr	r2, [r0, #84]	@ 0x54
 80023a6:	4021      	ands	r1, r4
 80023a8:	7011      	strb	r1, [r2, #0]
    huart->RxXferCount--;
 80023aa:	f8b0 205a 	ldrh.w	r2, [r0, #90]	@ 0x5a
    huart->pRxBuffPtr++;
 80023ae:	6d41      	ldr	r1, [r0, #84]	@ 0x54
    huart->RxXferCount--;
 80023b0:	3a01      	subs	r2, #1
 80023b2:	b292      	uxth	r2, r2
 80023b4:	f8a0 205a 	strh.w	r2, [r0, #90]	@ 0x5a
    if (huart->RxXferCount == 0U)
 80023b8:	f8b0 205a 	ldrh.w	r2, [r0, #90]	@ 0x5a
    huart->pRxBuffPtr++;
 80023bc:	3101      	adds	r1, #1
    if (huart->RxXferCount == 0U)
 80023be:	b292      	uxth	r2, r2
    huart->pRxBuffPtr++;
 80023c0:	6541      	str	r1, [r0, #84]	@ 0x54
    if (huart->RxXferCount == 0U)
 80023c2:	2a00      	cmp	r2, #0
 80023c4:	d1ea      	bne.n	800239c <UART_RxISR_8BIT+0x18>
}
 80023c6:	f85d 4b04 	ldr.w	r4, [sp], #4
 80023ca:	f7ff bf6d 	b.w	80022a8 <UART_RxISR_16BIT.part.0>
 80023ce:	bf00      	nop

080023d0 <UART_AdvFeatureConfig>:
  if (HAL_IS_BIT_SET(huart->AdvancedInit.AdvFeatureInit, UART_ADVFEATURE_SWAP_INIT))
 80023d0:	6a43      	ldr	r3, [r0, #36]	@ 0x24
 80023d2:	071a      	lsls	r2, r3, #28
{
 80023d4:	b410      	push	{r4}
  if (HAL_IS_BIT_SET(huart->AdvancedInit.AdvFeatureInit, UART_ADVFEATURE_SWAP_INIT))
 80023d6:	d506      	bpl.n	80023e6 <UART_AdvFeatureConfig+0x16>
    MODIFY_REG(huart->Instance->CR2, USART_CR2_SWAP, huart->AdvancedInit.Swap);
 80023d8:	6801      	ldr	r1, [r0, #0]
 80023da:	6b44      	ldr	r4, [r0, #52]	@ 0x34
 80023dc:	684a      	ldr	r2, [r1, #4]
 80023de:	f422 4200 	bic.w	r2, r2, #32768	@ 0x8000
 80023e2:	4322      	orrs	r2, r4
 80023e4:	604a      	str	r2, [r1, #4]
  if (HAL_IS_BIT_SET(huart->AdvancedInit.AdvFeatureInit, UART_ADVFEATURE_TXINVERT_INIT))
 80023e6:	07dc      	lsls	r4, r3, #31
 80023e8:	d506      	bpl.n	80023f8 <UART_AdvFeatureConfig+0x28>
    MODIFY_REG(huart->Instance->CR2, USART_CR2_TXINV, huart->AdvancedInit.TxPinLevelInvert);
 80023ea:	6801      	ldr	r1, [r0, #0]
 80023ec:	6a84      	ldr	r4, [r0, #40]	@ 0x28
 80023ee:	684a      	ldr	r2, [r1, #4]
 80023f0:	f422 3200 	bic.w	r2, r2, #131072	@ 0x20000
 80023f4:	4322      	orrs	r2, r4
 80023f6:	604a      	str	r2, [r1, #4]
  if (HAL_IS_BIT_SET(huart->AdvancedInit.AdvFeatureInit, UART_ADVFEATURE_RXINVERT_INIT))
 80023f8:	0799      	lsls	r1, r3, #30
 80023fa:	d506      	bpl.n	800240a <UART_AdvFeatureConfig+0x3a>
    MODIFY_REG(huart->Instance->CR2, USART_CR2_RXINV, huart->AdvancedInit.RxPinLevelInvert);
 80023fc:	6801      	ldr	r1, [r0, #0]
 80023fe:	6ac4      	ldr	r4, [r0, #44]	@ 0x2c
 8002400:	684a      	ldr	r2, [r1, #4]
 8002402:	f422 3280 	bic.w	r2, r2, #65536	@ 0x10000
 8002406:	4322      	orrs	r2, r4
 8002408:	604a      	str	r2, [r1, #4]
  if (HAL_IS_BIT_SET(huart->AdvancedInit.AdvFeatureInit, UART_ADVFEATURE_DATAINVERT_INIT))
 800240a:	075a      	lsls	r2, r3, #29
 800240c:	d506      	bpl.n	800241c <UART_AdvFeatureConfig+0x4c>
    MODIFY_REG(huart->Instance->CR2, USART_CR2_DATAINV, huart->AdvancedInit.DataInvert);
 800240e:	6801      	ldr	r1, [r0, #0]
 8002410:	6b04      	ldr	r4, [r0, #48]	@ 0x30
 8002412:	684a      	ldr	r2, [r1, #4]
 8002414:	f422 2280 	bic.w	r2, r2, #262144	@ 0x40000
 8002418:	4322      	orrs	r2, r4
 800241a:	604a      	str	r2, [r1, #4]
  if (HAL_IS_BIT_SET(huart->AdvancedInit.AdvFeatureInit, UART_ADVFEATURE_RXOVERRUNDISABLE_INIT))
 800241c:	06dc      	lsls	r4, r3, #27
 800241e:	d506      	bpl.n	800242e <UART_AdvFeatureConfig+0x5e>
    MODIFY_REG(huart->Instance->CR3, USART_CR3_OVRDIS, huart->AdvancedInit.OverrunDisable);
 8002420:	6801      	ldr	r1, [r0, #0]
 8002422:	6b84      	ldr	r4, [r0, #56]	@ 0x38
 8002424:	688a      	ldr	r2, [r1, #8]
 8002426:	f422 5280 	bic.w	r2, r2, #4096	@ 0x1000
 800242a:	4322      	orrs	r2, r4
 800242c:	608a      	str	r2, [r1, #8]
  if (HAL_IS_BIT_SET(huart->AdvancedInit.AdvFeatureInit, UART_ADVFEATURE_DMADISABLEONERROR_INIT))
 800242e:	0699      	lsls	r1, r3, #26
 8002430:	d506      	bpl.n	8002440 <UART_AdvFeatureConfig+0x70>
    MODIFY_REG(huart->Instance->CR3, USART_CR3_DDRE, huart->AdvancedInit.DMADisableonRxError);
 8002432:	6801      	ldr	r1, [r0, #0]
 8002434:	6bc4      	ldr	r4, [r0, #60]	@ 0x3c
 8002436:	688a      	ldr	r2, [r1, #8]
 8002438:	f422 5200 	bic.w	r2, r2, #8192	@ 0x2000
 800243c:	4322      	orrs	r2, r4
 800243e:	608a      	str	r2, [r1, #8]
  if (HAL_IS_BIT_SET(huart->AdvancedInit.AdvFeatureInit, UART_ADVFEATURE_AUTOBAUDRATE_INIT))
 8002440:	065a      	lsls	r2, r3, #25
 8002442:	d509      	bpl.n	8002458 <UART_AdvFeatureConfig+0x88>
    MODIFY_REG(huart->Instance->CR2, USART_CR2_ABREN, huart->AdvancedInit.AutoBaudRateEnable);
 8002444:	6801      	ldr	r1, [r0, #0]
 8002446:	6c04      	ldr	r4, [r0, #64]	@ 0x40
 8002448:	684a      	ldr	r2, [r1, #4]
 800244a:	f422 1280 	bic.w	r2, r2, #1048576	@ 0x100000
 800244e:	4322      	orrs	r2, r4
    if (huart->AdvancedInit.AutoBaudRateEnable == UART_ADVFEATURE_AUTOBAUDRATE_ENABLE)
 8002450:	f5b4 1f80 	cmp.w	r4, #1048576	@ 0x100000
    MODIFY_REG(huart->Instance->CR2, USART_CR2_ABREN, huart->AdvancedInit.AutoBaudRateEnable);
 8002454:	604a      	str	r2, [r1, #4]
    if (huart->AdvancedInit.AutoBaudRateEnable == UART_ADVFEATURE_AUTOBAUDRATE_ENABLE)
 8002456:	d00b      	beq.n	8002470 <UART_AdvFeatureConfig+0xa0>
  if (HAL_IS_BIT_SET(huart->AdvancedInit.AdvFeatureInit, UART_ADVFEATURE_MSBFIRST_INIT))
 8002458:	061b      	lsls	r3, r3, #24
 800245a:	d506      	bpl.n	800246a <UART_AdvFeatureConfig+0x9a>
    MODIFY_REG(huart->Instance->CR2, USART_CR2_MSBFIRST, huart->AdvancedInit.MSBFirst);
 800245c:	6802      	ldr	r2, [r0, #0]
 800245e:	6c81      	ldr	r1, [r0, #72]	@ 0x48
 8002460:	6853      	ldr	r3, [r2, #4]
 8002462:	f423 2300 	bic.w	r3, r3, #524288	@ 0x80000
 8002466:	430b      	orrs	r3, r1
 8002468:	6053      	str	r3, [r2, #4]
}
 800246a:	f85d 4b04 	ldr.w	r4, [sp], #4
 800246e:	4770      	bx	lr
      MODIFY_REG(huart->Instance->CR2, USART_CR2_ABRMODE, huart->AdvancedInit.AutoBaudRateMode);
 8002470:	684a      	ldr	r2, [r1, #4]
 8002472:	6c44      	ldr	r4, [r0, #68]	@ 0x44
 8002474:	f422 02c0 	bic.w	r2, r2, #6291456	@ 0x600000
 8002478:	4322      	orrs	r2, r4
 800247a:	604a      	str	r2, [r1, #4]
 800247c:	e7ec      	b.n	8002458 <UART_AdvFeatureConfig+0x88>
 800247e:	bf00      	nop

08002480 <UART_CheckIdleState>:
{
 8002480:	b538      	push	{r3, r4, r5, lr}
  huart->ErrorCode = HAL_UART_ERROR_NONE;
 8002482:	2300      	movs	r3, #0
{
 8002484:	4604      	mov	r4, r0
  huart->ErrorCode = HAL_UART_ERROR_NONE;
 8002486:	f8c0 3084 	str.w	r3, [r0, #132]	@ 0x84
  tickstart = HAL_GetTick();
 800248a:	f7fd fedf 	bl	800024c <HAL_GetTick>
  if ((huart->Instance->CR1 & USART_CR1_TE) == USART_CR1_TE)
 800248e:	6822      	ldr	r2, [r4, #0]
 8002490:	6813      	ldr	r3, [r2, #0]
 8002492:	071b      	lsls	r3, r3, #28
  tickstart = HAL_GetTick();
 8002494:	4605      	mov	r5, r0
  if ((huart->Instance->CR1 & USART_CR1_TE) == USART_CR1_TE)
 8002496:	d40e      	bmi.n	80024b6 <UART_CheckIdleState+0x36>
  if ((huart->Instance->CR1 & USART_CR1_RE) == USART_CR1_RE)
 8002498:	6813      	ldr	r3, [r2, #0]
 800249a:	0759      	lsls	r1, r3, #29
 800249c:	d42f      	bmi.n	80024fe <UART_CheckIdleState+0x7e>
  huart->ReceptionType = HAL_UART_RECEPTION_STANDARD;
 800249e:	2300      	movs	r3, #0
  huart->gState = HAL_UART_STATE_READY;
 80024a0:	2220      	movs	r2, #32
 80024a2:	67e2      	str	r2, [r4, #124]	@ 0x7c
  return HAL_OK;
 80024a4:	4618      	mov	r0, r3
  huart->RxState = HAL_UART_STATE_READY;
 80024a6:	f8c4 2080 	str.w	r2, [r4, #128]	@ 0x80
  huart->ReceptionType = HAL_UART_RECEPTION_STANDARD;
 80024aa:	6623      	str	r3, [r4, #96]	@ 0x60
  huart->RxEventType = HAL_UART_RXEVENT_TC;
 80024ac:	6663      	str	r3, [r4, #100]	@ 0x64
      __HAL_UNLOCK(huart);
 80024ae:	2300      	movs	r3, #0
 80024b0:	f884 3078 	strb.w	r3, [r4, #120]	@ 0x78
}
 80024b4:	bd38      	pop	{r3, r4, r5, pc}
  while ((__HAL_UART_GET_FLAG(huart, Flag) ? SET : RESET) == Status)
 80024b6:	69d3      	ldr	r3, [r2, #28]
 80024b8:	0298      	lsls	r0, r3, #10
 80024ba:	d4ed      	bmi.n	8002498 <UART_CheckIdleState+0x18>
 80024bc:	e00c      	b.n	80024d8 <UART_CheckIdleState+0x58>
      if ((READ_BIT(huart->Instance->CR1, USART_CR1_RE) != 0U) && (Flag != UART_FLAG_TXE) && (Flag != UART_FLAG_TC))
 80024be:	6819      	ldr	r1, [r3, #0]
 80024c0:	0749      	lsls	r1, r1, #29
 80024c2:	461a      	mov	r2, r3
 80024c4:	d505      	bpl.n	80024d2 <UART_CheckIdleState+0x52>
        if (__HAL_UART_GET_FLAG(huart, UART_FLAG_ORE) == SET)
 80024c6:	69d9      	ldr	r1, [r3, #28]
 80024c8:	0708      	lsls	r0, r1, #28
 80024ca:	d449      	bmi.n	8002560 <UART_CheckIdleState+0xe0>
        if (__HAL_UART_GET_FLAG(huart, UART_FLAG_RTOF) == SET)
 80024cc:	69d9      	ldr	r1, [r3, #28]
 80024ce:	0509      	lsls	r1, r1, #20
 80024d0:	d474      	bmi.n	80025bc <UART_CheckIdleState+0x13c>
  while ((__HAL_UART_GET_FLAG(huart, Flag) ? SET : RESET) == Status)
 80024d2:	69db      	ldr	r3, [r3, #28]
 80024d4:	0298      	lsls	r0, r3, #10
 80024d6:	d4df      	bmi.n	8002498 <UART_CheckIdleState+0x18>
      if (((HAL_GetTick() - Tickstart) > Timeout) || (Timeout == 0U))
 80024d8:	f7fd feb8 	bl	800024c <HAL_GetTick>
 80024dc:	1b43      	subs	r3, r0, r5
 80024de:	f1b3 7f00 	cmp.w	r3, #33554432	@ 0x2000000
      if ((READ_BIT(huart->Instance->CR1, USART_CR1_RE) != 0U) && (Flag != UART_FLAG_TXE) && (Flag != UART_FLAG_TC))
 80024e2:	6823      	ldr	r3, [r4, #0]
      if (((HAL_GetTick() - Tickstart) > Timeout) || (Timeout == 0U))
 80024e4:	d3eb      	bcc.n	80024be <UART_CheckIdleState+0x3e>
   __ASM volatile ("ldrex %0, %1" : "=r" (result) : "Q" (*addr) );
 80024e6:	e853 2f00 	ldrex	r2, [r3]
      ATOMIC_CLEAR_BIT(huart->Instance->CR1, (USART_CR1_TXEIE));
 80024ea:	f022 0280 	bic.w	r2, r2, #128	@ 0x80
   __ASM volatile ("strex %0, %2, %1" : "=&r" (result), "=Q" (*addr) : "r" (value) );
 80024ee:	e843 2100 	strex	r1, r2, [r3]
 80024f2:	2900      	cmp	r1, #0
 80024f4:	d1f7      	bne.n	80024e6 <UART_CheckIdleState+0x66>
      huart->gState = HAL_UART_STATE_READY;
 80024f6:	2320      	movs	r3, #32
 80024f8:	67e3      	str	r3, [r4, #124]	@ 0x7c
      return HAL_TIMEOUT;
 80024fa:	2003      	movs	r0, #3
 80024fc:	e7d7      	b.n	80024ae <UART_CheckIdleState+0x2e>
  while ((__HAL_UART_GET_FLAG(huart, Flag) ? SET : RESET) == Status)
 80024fe:	69d3      	ldr	r3, [r2, #28]
 8002500:	025b      	lsls	r3, r3, #9
 8002502:	d4cc      	bmi.n	800249e <UART_CheckIdleState+0x1e>
 8002504:	e00d      	b.n	8002522 <UART_CheckIdleState+0xa2>
      if ((READ_BIT(huart->Instance->CR1, USART_CR1_RE) != 0U) && (Flag != UART_FLAG_TXE) && (Flag != UART_FLAG_TC))
 8002506:	681a      	ldr	r2, [r3, #0]
 8002508:	0750      	lsls	r0, r2, #29
 800250a:	d507      	bpl.n	800251c <UART_CheckIdleState+0x9c>
        if (__HAL_UART_GET_FLAG(huart, UART_FLAG_ORE) == SET)
 800250c:	69da      	ldr	r2, [r3, #28]
 800250e:	0711      	lsls	r1, r2, #28
 8002510:	f100 8082 	bmi.w	8002618 <UART_CheckIdleState+0x198>
        if (__HAL_UART_GET_FLAG(huart, UART_FLAG_RTOF) == SET)
 8002514:	69da      	ldr	r2, [r3, #28]
 8002516:	0512      	lsls	r2, r2, #20
 8002518:	f100 80ac 	bmi.w	8002674 <UART_CheckIdleState+0x1f4>
  while ((__HAL_UART_GET_FLAG(huart, Flag) ? SET : RESET) == Status)
 800251c:	69db      	ldr	r3, [r3, #28]
 800251e:	025b      	lsls	r3, r3, #9
 8002520:	d4bd      	bmi.n	800249e <UART_CheckIdleState+0x1e>
      if (((HAL_GetTick() - Tickstart) > Timeout) || (Timeout == 0U))
 8002522:	f7fd fe93 	bl	800024c <HAL_GetTick>
 8002526:	1b43      	subs	r3, r0, r5
 8002528:	f1b3 7f00 	cmp.w	r3, #33554432	@ 0x2000000
 800252c:	6823      	ldr	r3, [r4, #0]
 800252e:	d3ea      	bcc.n	8002506 <UART_CheckIdleState+0x86>
   __ASM volatile ("ldrex %0, %1" : "=r" (result) : "Q" (*addr) );
 8002530:	e853 2f00 	ldrex	r2, [r3]
      ATOMIC_CLEAR_BIT(huart->Instance->CR1, (USART_CR1_RXNEIE | USART_CR1_PEIE));
 8002534:	f422 7290 	bic.w	r2, r2, #288	@ 0x120
   __ASM volatile ("strex %0, %2, %1" : "=&r" (result), "=Q" (*addr) : "r" (value) );
 8002538:	e843 2100 	strex	r1, r2, [r3]
 800253c:	2900      	cmp	r1, #0
 800253e:	d1f7      	bne.n	8002530 <UART_CheckIdleState+0xb0>
   __ASM volatile ("ldrex %0, %1" : "=r" (result) : "Q" (*addr) );
 8002540:	f103 0208 	add.w	r2, r3, #8
 8002544:	e852 2f00 	ldrex	r2, [r2]
      ATOMIC_CLEAR_BIT(huart->Instance->CR3, USART_CR3_EIE);
 8002548:	f022 0201 	bic.w	r2, r2, #1
   __ASM volatile ("strex %0, %2, %1" : "=&r" (result), "=Q" (*addr) : "r" (value) );
 800254c:	f103 0008 	add.w	r0, r3, #8
 8002550:	e840 2100 	strex	r1, r2, [r0]
 8002554:	2900      	cmp	r1, #0
 8002556:	d1f3      	bne.n	8002540 <UART_CheckIdleState+0xc0>
      huart->RxState = HAL_UART_STATE_READY;
 8002558:	2320      	movs	r3, #32
 800255a:	f8c4 3080 	str.w	r3, [r4, #128]	@ 0x80
      return HAL_TIMEOUT;
 800255e:	e7cc      	b.n	80024fa <UART_CheckIdleState+0x7a>
          __HAL_UART_CLEAR_FLAG(huart, UART_CLEAR_OREF);
 8002560:	2208      	movs	r2, #8
 8002562:	621a      	str	r2, [r3, #32]
   __ASM volatile ("ldrex %0, %1" : "=r" (result) : "Q" (*addr) );
 8002564:	e853 2f00 	ldrex	r2, [r3]
  ATOMIC_CLEAR_BIT(huart->Instance->CR1, (USART_CR1_RXNEIE | USART_CR1_PEIE));
 8002568:	f422 7290 	bic.w	r2, r2, #288	@ 0x120
   __ASM volatile ("strex %0, %2, %1" : "=&r" (result), "=Q" (*addr) : "r" (value) );
 800256c:	e843 2100 	strex	r1, r2, [r3]
 8002570:	2900      	cmp	r1, #0
 8002572:	d1f7      	bne.n	8002564 <UART_CheckIdleState+0xe4>
   __ASM volatile ("ldrex %0, %1" : "=r" (result) : "Q" (*addr) );
 8002574:	f103 0208 	add.w	r2, r3, #8
 8002578:	e852 2f00 	ldrex	r2, [r2]
  ATOMIC_CLEAR_BIT(huart->Instance->CR3, USART_CR3_EIE);
 800257c:	f022 0201 	bic.w	r2, r2, #1
   __ASM volatile ("strex %0, %2, %1" : "=&r" (result), "=Q" (*addr) : "r" (value) );
 8002580:	f103 0008 	add.w	r0, r3, #8
 8002584:	e840 2100 	strex	r1, r2, [r0]
 8002588:	2900      	cmp	r1, #0
 800258a:	d1f3      	bne.n	8002574 <UART_CheckIdleState+0xf4>
  if (huart->ReceptionType == HAL_UART_RECEPTION_TOIDLE)
 800258c:	6e22      	ldr	r2, [r4, #96]	@ 0x60
 800258e:	2a01      	cmp	r2, #1
 8002590:	d00b      	beq.n	80025aa <UART_CheckIdleState+0x12a>
  huart->ReceptionType = HAL_UART_RECEPTION_STANDARD;
 8002592:	2200      	movs	r2, #0
  huart->RxState = HAL_UART_STATE_READY;
 8002594:	2020      	movs	r0, #32
          huart->ErrorCode = HAL_UART_ERROR_ORE;
 8002596:	2108      	movs	r1, #8
  huart->RxState = HAL_UART_STATE_READY;
 8002598:	f8c4 0080 	str.w	r0, [r4, #128]	@ 0x80
  huart->RxISR = NULL;
 800259c:	66a2      	str	r2, [r4, #104]	@ 0x68
  huart->ReceptionType = HAL_UART_RECEPTION_STANDARD;
 800259e:	6622      	str	r2, [r4, #96]	@ 0x60
          __HAL_UNLOCK(huart);
 80025a0:	f884 2078 	strb.w	r2, [r4, #120]	@ 0x78
          huart->ErrorCode = HAL_UART_ERROR_ORE;
 80025a4:	f8c4 1084 	str.w	r1, [r4, #132]	@ 0x84
          return HAL_ERROR;
 80025a8:	e79d      	b.n	80024e6 <UART_CheckIdleState+0x66>
   __ASM volatile ("ldrex %0, %1" : "=r" (result) : "Q" (*addr) );
 80025aa:	e853 2f00 	ldrex	r2, [r3]
    ATOMIC_CLEAR_BIT(huart->Instance->CR1, USART_CR1_IDLEIE);
 80025ae:	f022 0210 	bic.w	r2, r2, #16
   __ASM volatile ("strex %0, %2, %1" : "=&r" (result), "=Q" (*addr) : "r" (value) );
 80025b2:	e843 2100 	strex	r1, r2, [r3]
 80025b6:	2900      	cmp	r1, #0
 80025b8:	d1f7      	bne.n	80025aa <UART_CheckIdleState+0x12a>
 80025ba:	e7ea      	b.n	8002592 <UART_CheckIdleState+0x112>
          __HAL_UART_CLEAR_FLAG(huart, UART_CLEAR_RTOF);
 80025bc:	f44f 6200 	mov.w	r2, #2048	@ 0x800
 80025c0:	621a      	str	r2, [r3, #32]
   __ASM volatile ("ldrex %0, %1" : "=r" (result) : "Q" (*addr) );
 80025c2:	e853 2f00 	ldrex	r2, [r3]
  ATOMIC_CLEAR_BIT(huart->Instance->CR1, (USART_CR1_RXNEIE | USART_CR1_PEIE));
 80025c6:	f422 7290 	bic.w	r2, r2, #288	@ 0x120
   __ASM volatile ("strex %0, %2, %1" : "=&r" (result), "=Q" (*addr) : "r" (value) );
 80025ca:	e843 2100 	strex	r1, r2, [r3]
 80025ce:	2900      	cmp	r1, #0
 80025d0:	d1f7      	bne.n	80025c2 <UART_CheckIdleState+0x142>
   __ASM volatile ("ldrex %0, %1" : "=r" (result) : "Q" (*addr) );
 80025d2:	f103 0208 	add.w	r2, r3, #8
 80025d6:	e852 2f00 	ldrex	r2, [r2]
  ATOMIC_CLEAR_BIT(huart->Instance->CR3, USART_CR3_EIE);
 80025da:	f022 0201 	bic.w	r2, r2, #1
   __ASM volatile ("strex %0, %2, %1" : "=&r" (result), "=Q" (*addr) : "r" (value) );
 80025de:	f103 0008 	add.w	r0, r3, #8
 80025e2:	e840 2100 	strex	r1, r2, [r0]
 80025e6:	2900      	cmp	r1, #0
 80025e8:	d1f3      	bne.n	80025d2 <UART_CheckIdleState+0x152>
  if (huart->ReceptionType == HAL_UART_RECEPTION_TOIDLE)
 80025ea:	6e22      	ldr	r2, [r4, #96]	@ 0x60
 80025ec:	2a01      	cmp	r2, #1
 80025ee:	d00a      	beq.n	8002606 <UART_CheckIdleState+0x186>
  huart->ReceptionType = HAL_UART_RECEPTION_STANDARD;
 80025f0:	2200      	movs	r2, #0
  huart->RxState = HAL_UART_STATE_READY;
 80025f2:	2120      	movs	r1, #32
 80025f4:	f8c4 1080 	str.w	r1, [r4, #128]	@ 0x80
  huart->RxISR = NULL;
 80025f8:	66a2      	str	r2, [r4, #104]	@ 0x68
  huart->ReceptionType = HAL_UART_RECEPTION_STANDARD;
 80025fa:	6622      	str	r2, [r4, #96]	@ 0x60
          __HAL_UNLOCK(huart);
 80025fc:	f884 2078 	strb.w	r2, [r4, #120]	@ 0x78
          huart->ErrorCode = HAL_UART_ERROR_RTO;
 8002600:	f8c4 1084 	str.w	r1, [r4, #132]	@ 0x84
          return HAL_TIMEOUT;
 8002604:	e76f      	b.n	80024e6 <UART_CheckIdleState+0x66>
   __ASM volatile ("ldrex %0, %1" : "=r" (result) : "Q" (*addr) );
 8002606:	e853 2f00 	ldrex	r2, [r3]
    ATOMIC_CLEAR_BIT(huart->Instance->CR1, USART_CR1_IDLEIE);
 800260a:	f022 0210 	bic.w	r2, r2, #16
   __ASM volatile ("strex %0, %2, %1" : "=&r" (result), "=Q" (*addr) : "r" (value) );
 800260e:	e843 2100 	strex	r1, r2, [r3]
 8002612:	2900      	cmp	r1, #0
 8002614:	d1f7      	bne.n	8002606 <UART_CheckIdleState+0x186>
 8002616:	e7eb      	b.n	80025f0 <UART_CheckIdleState+0x170>
          __HAL_UART_CLEAR_FLAG(huart, UART_CLEAR_OREF);
 8002618:	2208      	movs	r2, #8
 800261a:	621a      	str	r2, [r3, #32]
   __ASM volatile ("ldrex %0, %1" : "=r" (result) : "Q" (*addr) );
 800261c:	e853 2f00 	ldrex	r2, [r3]
  ATOMIC_CLEAR_BIT(huart->Instance->CR1, (USART_CR1_RXNEIE | USART_CR1_PEIE));
 8002620:	f422 7290 	bic.w	r2, r2, #288	@ 0x120
   __ASM volatile ("strex %0, %2, %1" : "=&r" (result), "=Q" (*addr) : "r" (value) );
 8002624:	e843 2100 	strex	r1, r2, [r3]
 8002628:	2900      	cmp	r1, #0
 800262a:	d1f7      	bne.n	800261c <UART_CheckIdleState+0x19c>
   __ASM volatile ("ldrex %0, %1" : "=r" (result) : "Q" (*addr) );
 800262c:	f103 0208 	add.w	r2, r3, #8
 8002630:	e852 2f00 	ldrex	r2, [r2]
  ATOMIC_CLEAR_BIT(huart->Instance->CR3, USART_CR3_EIE);
 8002634:	f022 0201 	bic.w	r2, r2, #1
   __ASM volatile ("strex %0, %2, %1" : "=&r" (result), "=Q" (*addr) : "r" (value) );
 8002638:	f103 0008 	add.w	r0, r3, #8
 800263c:	e840 2100 	strex	r1, r2, [r0]
 8002640:	2900      	cmp	r1, #0
 8002642:	d1f3      	bne.n	800262c <UART_CheckIdleState+0x1ac>
  if (huart->ReceptionType == HAL_UART_RECEPTION_TOIDLE)
 8002644:	6e22      	ldr	r2, [r4, #96]	@ 0x60
 8002646:	2a01      	cmp	r2, #1
 8002648:	d00b      	beq.n	8002662 <UART_CheckIdleState+0x1e2>
  huart->ReceptionType = HAL_UART_RECEPTION_STANDARD;
 800264a:	2200      	movs	r2, #0
  huart->RxState = HAL_UART_STATE_READY;
 800264c:	2020      	movs	r0, #32
          huart->ErrorCode = HAL_UART_ERROR_ORE;
 800264e:	2108      	movs	r1, #8
  huart->RxState = HAL_UART_STATE_READY;
 8002650:	f8c4 0080 	str.w	r0, [r4, #128]	@ 0x80
  huart->RxISR = NULL;
 8002654:	66a2      	str	r2, [r4, #104]	@ 0x68
  huart->ReceptionType = HAL_UART_RECEPTION_STANDARD;
 8002656:	6622      	str	r2, [r4, #96]	@ 0x60
          __HAL_UNLOCK(huart);
 8002658:	f884 2078 	strb.w	r2, [r4, #120]	@ 0x78
          huart->ErrorCode = HAL_UART_ERROR_ORE;
 800265c:	f8c4 1084 	str.w	r1, [r4, #132]	@ 0x84
          return HAL_ERROR;
 8002660:	e766      	b.n	8002530 <UART_CheckIdleState+0xb0>
   __ASM volatile ("ldrex %0, %1" : "=r" (result) : "Q" (*addr) );
 8002662:	e853 2f00 	ldrex	r2, [r3]
    ATOMIC_CLEAR_BIT(huart->Instance->CR1, USART_CR1_IDLEIE);
 8002666:	f022 0210 	bic.w	r2, r2, #16
   __ASM volatile ("strex %0, %2, %1" : "=&r" (result), "=Q" (*addr) : "r" (value) );
 800266a:	e843 2100 	strex	r1, r2, [r3]
 800266e:	2900      	cmp	r1, #0
 8002670:	d1f7      	bne.n	8002662 <UART_CheckIdleState+0x1e2>
 8002672:	e7ea      	b.n	800264a <UART_CheckIdleState+0x1ca>
          __HAL_UART_CLEAR_FLAG(huart, UART_CLEAR_RTOF);
 8002674:	f44f 6200 	mov.w	r2, #2048	@ 0x800
 8002678:	621a      	str	r2, [r3, #32]
   __ASM volatile ("ldrex %0, %1" : "=r" (result) : "Q" (*addr) );
 800267a:	e853 2f00 	ldrex	r2, [r3]
  ATOMIC_CLEAR_BIT(huart->Instance->CR1, (USART_CR1_RXNEIE | USART_CR1_PEIE));
 800267e:	f422 7290 	bic.w	r2, r2, #288	@ 0x120
   __ASM volatile ("strex %0, %2, %1" : "=&r" (result), "=Q" (*addr) : "r" (value) );
 8002682:	e843 2100 	strex	r1, r2, [r3]
 8002686:	2900      	cmp	r1, #0
 8002688:	d1f7      	bne.n	800267a <UART_CheckIdleState+0x1fa>
   __ASM volatile ("ldrex %0, %1" : "=r" (result) : "Q" (*addr) );
 800268a:	f103 0208 	add.w	r2, r3, #8
 800268e:	e852 2f00 	ldrex	r2, [r2]
  ATOMIC_CLEAR_BIT(huart->Instance->CR3, USART_CR3_EIE);
 8002692:	f022 0201 	bic.w	r2, r2, #1
   __ASM volatile ("strex %0, %2, %1" : "=&r" (result), "=Q" (*addr) : "r" (value) );
 8002696:	f103 0008 	add.w	r0, r3, #8
 800269a:	e840 2100 	strex	r1, r2, [r0]
 800269e:	2900      	cmp	r1, #0
 80026a0:	d1f3      	bne.n	800268a <UART_CheckIdleState+0x20a>
  if (huart->ReceptionType == HAL_UART_RECEPTION_TOIDLE)
 80026a2:	6e22      	ldr	r2, [r4, #96]	@ 0x60
 80026a4:	2a01      	cmp	r2, #1
 80026a6:	d00a      	beq.n	80026be <UART_CheckIdleState+0x23e>
  huart->ReceptionType = HAL_UART_RECEPTION_STANDARD;
 80026a8:	2200      	movs	r2, #0
  huart->RxState = HAL_UART_STATE_READY;
 80026aa:	2120      	movs	r1, #32
 80026ac:	f8c4 1080 	str.w	r1, [r4, #128]	@ 0x80
  huart->RxISR = NULL;
 80026b0:	66a2      	str	r2, [r4, #104]	@ 0x68
  huart->ReceptionType = HAL_UART_RECEPTION_STANDARD;
 80026b2:	6622      	str	r2, [r4, #96]	@ 0x60
          __HAL_UNLOCK(huart);
 80026b4:	f884 2078 	strb.w	r2, [r4, #120]	@ 0x78
          huart->ErrorCode = HAL_UART_ERROR_RTO;
 80026b8:	f8c4 1084 	str.w	r1, [r4, #132]	@ 0x84
          return HAL_TIMEOUT;
 80026bc:	e738      	b.n	8002530 <UART_CheckIdleState+0xb0>
   __ASM volatile ("ldrex %0, %1" : "=r" (result) : "Q" (*addr) );
 80026be:	e853 2f00 	ldrex	r2, [r3]
    ATOMIC_CLEAR_BIT(huart->Instance->CR1, USART_CR1_IDLEIE);
 80026c2:	f022 0210 	bic.w	r2, r2, #16
   __ASM volatile ("strex %0, %2, %1" : "=&r" (result), "=Q" (*addr) : "r" (value) );
 80026c6:	e843 2100 	strex	r1, r2, [r3]
 80026ca:	2900      	cmp	r1, #0
 80026cc:	d1f7      	bne.n	80026be <UART_CheckIdleState+0x23e>
 80026ce:	e7eb      	b.n	80026a8 <UART_CheckIdleState+0x228>

080026d0 <HAL_UART_Init>:
  if (huart == NULL)
 80026d0:	2800      	cmp	r0, #0
 80026d2:	f000 80c5 	beq.w	8002860 <HAL_UART_Init+0x190>
{
 80026d6:	b538      	push	{r3, r4, r5, lr}
  if (huart->gState == HAL_UART_STATE_RESET)
 80026d8:	6fc3      	ldr	r3, [r0, #124]	@ 0x7c
 80026da:	4604      	mov	r4, r0
 80026dc:	2b00      	cmp	r3, #0
 80026de:	d03d      	beq.n	800275c <HAL_UART_Init+0x8c>
  __HAL_UART_DISABLE(huart);
 80026e0:	6825      	ldr	r5, [r4, #0]
  if (huart->AdvancedInit.AdvFeatureInit != UART_ADVFEATURE_NO_INIT)
 80026e2:	6a62      	ldr	r2, [r4, #36]	@ 0x24
  huart->gState = HAL_UART_STATE_BUSY;
 80026e4:	2324      	movs	r3, #36	@ 0x24
 80026e6:	67e3      	str	r3, [r4, #124]	@ 0x7c
  __HAL_UART_DISABLE(huart);
 80026e8:	682b      	ldr	r3, [r5, #0]
 80026ea:	f023 0301 	bic.w	r3, r3, #1
 80026ee:	602b      	str	r3, [r5, #0]
  if (huart->AdvancedInit.AdvFeatureInit != UART_ADVFEATURE_NO_INIT)
 80026f0:	2a00      	cmp	r2, #0
 80026f2:	d12f      	bne.n	8002754 <HAL_UART_Init+0x84>
  tmpreg = (uint32_t)huart->Init.WordLength | huart->Init.Parity | huart->Init.Mode | huart->Init.OverSampling ;
 80026f4:	6920      	ldr	r0, [r4, #16]
 80026f6:	68a3      	ldr	r3, [r4, #8]
  MODIFY_REG(huart->Instance->CR1, USART_CR1_FIELDS, tmpreg);
 80026f8:	6829      	ldr	r1, [r5, #0]
  tmpreg = (uint32_t)huart->Init.WordLength | huart->Init.Parity | huart->Init.Mode | huart->Init.OverSampling ;
 80026fa:	69e2      	ldr	r2, [r4, #28]
 80026fc:	4303      	orrs	r3, r0
 80026fe:	6960      	ldr	r0, [r4, #20]
  MODIFY_REG(huart->Instance->CR1, USART_CR1_FIELDS, tmpreg);
 8002700:	f421 4116 	bic.w	r1, r1, #38400	@ 0x9600
  tmpreg = (uint32_t)huart->Init.WordLength | huart->Init.Parity | huart->Init.Mode | huart->Init.OverSampling ;
 8002704:	4303      	orrs	r3, r0
  MODIFY_REG(huart->Instance->CR1, USART_CR1_FIELDS, tmpreg);
 8002706:	f021 010c 	bic.w	r1, r1, #12
  tmpreg = (uint32_t)huart->Init.WordLength | huart->Init.Parity | huart->Init.Mode | huart->Init.OverSampling ;
 800270a:	4313      	orrs	r3, r2
  MODIFY_REG(huart->Instance->CR1, USART_CR1_FIELDS, tmpreg);
 800270c:	430b      	orrs	r3, r1
 800270e:	602b      	str	r3, [r5, #0]
  MODIFY_REG(huart->Instance->CR2, USART_CR2_STOP, huart->Init.StopBits);
 8002710:	686b      	ldr	r3, [r5, #4]
 8002712:	68e1      	ldr	r1, [r4, #12]
  tmpreg |= huart->Init.OneBitSampling;
 8002714:	6a20      	ldr	r0, [r4, #32]
  MODIFY_REG(huart->Instance->CR2, USART_CR2_STOP, huart->Init.StopBits);
 8002716:	f423 5340 	bic.w	r3, r3, #12288	@ 0x3000
 800271a:	430b      	orrs	r3, r1
 800271c:	606b      	str	r3, [r5, #4]
  MODIFY_REG(huart->Instance->CR3, USART_CR3_FIELDS, tmpreg);
 800271e:	68a9      	ldr	r1, [r5, #8]
  tmpreg = (uint32_t)huart->Init.HwFlowCtl;
 8002720:	69a3      	ldr	r3, [r4, #24]
  MODIFY_REG(huart->Instance->CR3, USART_CR3_FIELDS, tmpreg);
 8002722:	f421 6130 	bic.w	r1, r1, #2816	@ 0xb00
  tmpreg |= huart->Init.OneBitSampling;
 8002726:	4303      	orrs	r3, r0
  MODIFY_REG(huart->Instance->CR3, USART_CR3_FIELDS, tmpreg);
 8002728:	430b      	orrs	r3, r1
  UART_GETCLOCKSOURCE(huart, clocksource);
 800272a:	4965      	ldr	r1, [pc, #404]	@ (80028c0 <HAL_UART_Init+0x1f0>)
  MODIFY_REG(huart->Instance->CR3, USART_CR3_FIELDS, tmpreg);
 800272c:	60ab      	str	r3, [r5, #8]
  UART_GETCLOCKSOURCE(huart, clocksource);
 800272e:	428d      	cmp	r5, r1
 8002730:	d019      	beq.n	8002766 <HAL_UART_Init+0x96>
 8002732:	4b64      	ldr	r3, [pc, #400]	@ (80028c4 <HAL_UART_Init+0x1f4>)
 8002734:	429d      	cmp	r5, r3
 8002736:	d03c      	beq.n	80027b2 <HAL_UART_Init+0xe2>
 8002738:	4b63      	ldr	r3, [pc, #396]	@ (80028c8 <HAL_UART_Init+0x1f8>)
 800273a:	429d      	cmp	r5, r3
 800273c:	d07d      	beq.n	800283a <HAL_UART_Init+0x16a>
 800273e:	4b63      	ldr	r3, [pc, #396]	@ (80028cc <HAL_UART_Init+0x1fc>)
 8002740:	429d      	cmp	r5, r3
 8002742:	d047      	beq.n	80027d4 <HAL_UART_Init+0x104>
 8002744:	4b62      	ldr	r3, [pc, #392]	@ (80028d0 <HAL_UART_Init+0x200>)
 8002746:	429d      	cmp	r5, r3
 8002748:	d055      	beq.n	80027f6 <HAL_UART_Init+0x126>
  huart->RxISR = NULL;
 800274a:	2300      	movs	r3, #0
 800274c:	e9c4 331a 	strd	r3, r3, [r4, #104]	@ 0x68
}
 8002750:	2001      	movs	r0, #1
 8002752:	bd38      	pop	{r3, r4, r5, pc}
    UART_AdvFeatureConfig(huart);
 8002754:	4620      	mov	r0, r4
 8002756:	f7ff fe3b 	bl	80023d0 <UART_AdvFeatureConfig>
 800275a:	e7cb      	b.n	80026f4 <HAL_UART_Init+0x24>
    huart->Lock = HAL_UNLOCKED;
 800275c:	f880 3078 	strb.w	r3, [r0, #120]	@ 0x78
    HAL_UART_MspInit(huart);
 8002760:	f000 fe22 	bl	80033a8 <HAL_UART_MspInit>
 8002764:	e7bc      	b.n	80026e0 <HAL_UART_Init+0x10>
  UART_GETCLOCKSOURCE(huart, clocksource);
 8002766:	4b5b      	ldr	r3, [pc, #364]	@ (80028d4 <HAL_UART_Init+0x204>)
 8002768:	6b1b      	ldr	r3, [r3, #48]	@ 0x30
 800276a:	f003 0303 	and.w	r3, r3, #3
 800276e:	2b02      	cmp	r3, #2
 8002770:	d049      	beq.n	8002806 <HAL_UART_Init+0x136>
 8002772:	2b03      	cmp	r3, #3
 8002774:	d03a      	beq.n	80027ec <HAL_UART_Init+0x11c>
 8002776:	2b01      	cmp	r3, #1
 8002778:	d026      	beq.n	80027c8 <HAL_UART_Init+0xf8>
  if (huart->Init.OverSampling == UART_OVERSAMPLING_8)
 800277a:	f5b2 4f00 	cmp.w	r2, #32768	@ 0x8000
 800277e:	f000 8092 	beq.w	80028a6 <HAL_UART_Init+0x1d6>
        pclk = HAL_RCC_GetPCLK2Freq();
 8002782:	f7fe fc93 	bl	80010ac <HAL_RCC_GetPCLK2Freq>
    if (pclk != 0U)
 8002786:	2800      	cmp	r0, #0
 8002788:	d142      	bne.n	8002810 <HAL_UART_Init+0x140>
  huart->RxISR = NULL;
 800278a:	e9c4 001a 	strd	r0, r0, [r4, #104]	@ 0x68
  CLEAR_BIT(huart->Instance->CR2, (USART_CR2_LINEN | USART_CR2_CLKEN));
 800278e:	6823      	ldr	r3, [r4, #0]
 8002790:	685a      	ldr	r2, [r3, #4]
 8002792:	f422 4290 	bic.w	r2, r2, #18432	@ 0x4800
 8002796:	605a      	str	r2, [r3, #4]
  CLEAR_BIT(huart->Instance->CR3, (USART_CR3_SCEN | USART_CR3_HDSEL | USART_CR3_IREN));
 8002798:	689a      	ldr	r2, [r3, #8]
 800279a:	f022 022a 	bic.w	r2, r2, #42	@ 0x2a
 800279e:	609a      	str	r2, [r3, #8]
  __HAL_UART_ENABLE(huart);
 80027a0:	681a      	ldr	r2, [r3, #0]
 80027a2:	f042 0201 	orr.w	r2, r2, #1
  return (UART_CheckIdleState(huart));
 80027a6:	4620      	mov	r0, r4
  __HAL_UART_ENABLE(huart);
 80027a8:	601a      	str	r2, [r3, #0]
}
 80027aa:	e8bd 4038 	ldmia.w	sp!, {r3, r4, r5, lr}
  return (UART_CheckIdleState(huart));
 80027ae:	f7ff be67 	b.w	8002480 <UART_CheckIdleState>
  UART_GETCLOCKSOURCE(huart, clocksource);
 80027b2:	f503 33e6 	add.w	r3, r3, #117760	@ 0x1cc00
 80027b6:	6b1b      	ldr	r3, [r3, #48]	@ 0x30
 80027b8:	f403 3340 	and.w	r3, r3, #196608	@ 0x30000
 80027bc:	f5b3 3f00 	cmp.w	r3, #131072	@ 0x20000
 80027c0:	d021      	beq.n	8002806 <HAL_UART_Init+0x136>
 80027c2:	d836      	bhi.n	8002832 <HAL_UART_Init+0x162>
 80027c4:	2b00      	cmp	r3, #0
 80027c6:	d045      	beq.n	8002854 <HAL_UART_Init+0x184>
  if (huart->Init.OverSampling == UART_OVERSAMPLING_8)
 80027c8:	f5b2 4f00 	cmp.w	r2, #32768	@ 0x8000
 80027cc:	d075      	beq.n	80028ba <HAL_UART_Init+0x1ea>
        pclk = HAL_RCC_GetSysClockFreq();
 80027ce:	f7fe fc2d 	bl	800102c <HAL_RCC_GetSysClockFreq>
        break;
 80027d2:	e7d8      	b.n	8002786 <HAL_UART_Init+0xb6>
  UART_GETCLOCKSOURCE(huart, clocksource);
 80027d4:	f503 33e2 	add.w	r3, r3, #115712	@ 0x1c400
 80027d8:	6b1b      	ldr	r3, [r3, #48]	@ 0x30
 80027da:	f403 1340 	and.w	r3, r3, #3145728	@ 0x300000
 80027de:	f5b3 1f00 	cmp.w	r3, #2097152	@ 0x200000
 80027e2:	d010      	beq.n	8002806 <HAL_UART_Init+0x136>
 80027e4:	d9ee      	bls.n	80027c4 <HAL_UART_Init+0xf4>
 80027e6:	f5b3 1f40 	cmp.w	r3, #3145728	@ 0x300000
 80027ea:	d1ae      	bne.n	800274a <HAL_UART_Init+0x7a>
  if (huart->Init.OverSampling == UART_OVERSAMPLING_8)
 80027ec:	f5b2 4f00 	cmp.w	r2, #32768	@ 0x8000
 80027f0:	d052      	beq.n	8002898 <HAL_UART_Init+0x1c8>
        pclk = (uint32_t) HSI_VALUE;
 80027f2:	4839      	ldr	r0, [pc, #228]	@ (80028d8 <HAL_UART_Init+0x208>)
 80027f4:	e00c      	b.n	8002810 <HAL_UART_Init+0x140>
  UART_GETCLOCKSOURCE(huart, clocksource);
 80027f6:	f503 33e0 	add.w	r3, r3, #114688	@ 0x1c000
 80027fa:	6b1b      	ldr	r3, [r3, #48]	@ 0x30
 80027fc:	f403 0340 	and.w	r3, r3, #12582912	@ 0xc00000
 8002800:	f5b3 0f00 	cmp.w	r3, #8388608	@ 0x800000
 8002804:	d14a      	bne.n	800289c <HAL_UART_Init+0x1cc>
  if (huart->Init.OverSampling == UART_OVERSAMPLING_8)
 8002806:	f5b2 4f00 	cmp.w	r2, #32768	@ 0x8000
 800280a:	d02b      	beq.n	8002864 <HAL_UART_Init+0x194>
        pclk = (uint32_t) LSE_VALUE;
 800280c:	f44f 4000 	mov.w	r0, #32768	@ 0x8000
      usartdiv = (uint32_t)(UART_DIV_SAMPLING16(pclk, huart->Init.BaudRate));
 8002810:	6863      	ldr	r3, [r4, #4]
      if ((usartdiv >= UART_BRR_MIN) && (usartdiv <= UART_BRR_MAX))
 8002812:	f64f 72ef 	movw	r2, #65519	@ 0xffef
      usartdiv = (uint32_t)(UART_DIV_SAMPLING16(pclk, huart->Init.BaudRate));
 8002816:	eb00 0053 	add.w	r0, r0, r3, lsr #1
 800281a:	fbb0 f0f3 	udiv	r0, r0, r3
      if ((usartdiv >= UART_BRR_MIN) && (usartdiv <= UART_BRR_MAX))
 800281e:	f1a0 0310 	sub.w	r3, r0, #16
 8002822:	4293      	cmp	r3, r2
 8002824:	d891      	bhi.n	800274a <HAL_UART_Init+0x7a>
        huart->Instance->BRR = (uint16_t)usartdiv;
 8002826:	6823      	ldr	r3, [r4, #0]
  huart->RxISR = NULL;
 8002828:	2200      	movs	r2, #0
        huart->Instance->BRR = (uint16_t)usartdiv;
 800282a:	60d8      	str	r0, [r3, #12]
  huart->RxISR = NULL;
 800282c:	e9c4 221a 	strd	r2, r2, [r4, #104]	@ 0x68
  return ret;
 8002830:	e7ae      	b.n	8002790 <HAL_UART_Init+0xc0>
  UART_GETCLOCKSOURCE(huart, clocksource);
 8002832:	f5b3 3f40 	cmp.w	r3, #196608	@ 0x30000
 8002836:	d0d9      	beq.n	80027ec <HAL_UART_Init+0x11c>
 8002838:	e787      	b.n	800274a <HAL_UART_Init+0x7a>
 800283a:	f503 33e4 	add.w	r3, r3, #116736	@ 0x1c800
 800283e:	6b1b      	ldr	r3, [r3, #48]	@ 0x30
 8002840:	f403 2340 	and.w	r3, r3, #786432	@ 0xc0000
 8002844:	f5b3 2f00 	cmp.w	r3, #524288	@ 0x80000
 8002848:	d0dd      	beq.n	8002806 <HAL_UART_Init+0x136>
 800284a:	d9bb      	bls.n	80027c4 <HAL_UART_Init+0xf4>
 800284c:	f5b3 2f40 	cmp.w	r3, #786432	@ 0xc0000
 8002850:	d0cc      	beq.n	80027ec <HAL_UART_Init+0x11c>
 8002852:	e77a      	b.n	800274a <HAL_UART_Init+0x7a>
  if (huart->Init.OverSampling == UART_OVERSAMPLING_8)
 8002854:	f5b2 4f00 	cmp.w	r2, #32768	@ 0x8000
 8002858:	d02c      	beq.n	80028b4 <HAL_UART_Init+0x1e4>
        pclk = HAL_RCC_GetPCLK1Freq();
 800285a:	f7fe fc0f 	bl	800107c <HAL_RCC_GetPCLK1Freq>
        break;
 800285e:	e792      	b.n	8002786 <HAL_UART_Init+0xb6>
}
 8002860:	2001      	movs	r0, #1
 8002862:	4770      	bx	lr
  if (huart->Init.OverSampling == UART_OVERSAMPLING_8)
 8002864:	f44f 3080 	mov.w	r0, #65536	@ 0x10000
      usartdiv = (uint32_t)(UART_DIV_SAMPLING8(pclk, huart->Init.BaudRate));
 8002868:	6862      	ldr	r2, [r4, #4]
      if ((usartdiv >= UART_BRR_MIN) && (usartdiv <= UART_BRR_MAX))
 800286a:	f64f 71ef 	movw	r1, #65519	@ 0xffef
      usartdiv = (uint32_t)(UART_DIV_SAMPLING8(pclk, huart->Init.BaudRate));
 800286e:	eb00 0052 	add.w	r0, r0, r2, lsr #1
 8002872:	fbb0 f2f2 	udiv	r2, r0, r2
      if ((usartdiv >= UART_BRR_MIN) && (usartdiv <= UART_BRR_MAX))
 8002876:	f1a2 0310 	sub.w	r3, r2, #16
 800287a:	428b      	cmp	r3, r1
 800287c:	f63f af65 	bhi.w	800274a <HAL_UART_Init+0x7a>
        brrtemp = (uint16_t)(usartdiv & 0xFFF0U);
 8002880:	f022 010f 	bic.w	r1, r2, #15
 8002884:	b289      	uxth	r1, r1
        huart->Instance->BRR = brrtemp;
 8002886:	6823      	ldr	r3, [r4, #0]
        brrtemp |= (uint16_t)((usartdiv & (uint16_t)0x000FU) >> 1U);
 8002888:	f3c2 0242 	ubfx	r2, r2, #1, #3
        huart->Instance->BRR = brrtemp;
 800288c:	430a      	orrs	r2, r1
  huart->RxISR = NULL;
 800288e:	2100      	movs	r1, #0
        huart->Instance->BRR = brrtemp;
 8002890:	60da      	str	r2, [r3, #12]
  huart->RxISR = NULL;
 8002892:	e9c4 111a 	strd	r1, r1, [r4, #104]	@ 0x68
  return ret;
 8002896:	e77b      	b.n	8002790 <HAL_UART_Init+0xc0>
  if (huart->Init.OverSampling == UART_OVERSAMPLING_8)
 8002898:	4810      	ldr	r0, [pc, #64]	@ (80028dc <HAL_UART_Init+0x20c>)
 800289a:	e7e5      	b.n	8002868 <HAL_UART_Init+0x198>
  UART_GETCLOCKSOURCE(huart, clocksource);
 800289c:	d992      	bls.n	80027c4 <HAL_UART_Init+0xf4>
 800289e:	f5b3 0f40 	cmp.w	r3, #12582912	@ 0xc00000
 80028a2:	d0a3      	beq.n	80027ec <HAL_UART_Init+0x11c>
 80028a4:	e751      	b.n	800274a <HAL_UART_Init+0x7a>
        pclk = HAL_RCC_GetPCLK2Freq();
 80028a6:	f7fe fc01 	bl	80010ac <HAL_RCC_GetPCLK2Freq>
    if (pclk != 0U)
 80028aa:	2800      	cmp	r0, #0
 80028ac:	f43f af6d 	beq.w	800278a <HAL_UART_Init+0xba>
      usartdiv = (uint32_t)(UART_DIV_SAMPLING8(pclk, huart->Init.BaudRate));
 80028b0:	0040      	lsls	r0, r0, #1
 80028b2:	e7d9      	b.n	8002868 <HAL_UART_Init+0x198>
        pclk = HAL_RCC_GetPCLK1Freq();
 80028b4:	f7fe fbe2 	bl	800107c <HAL_RCC_GetPCLK1Freq>
        break;
 80028b8:	e7f7      	b.n	80028aa <HAL_UART_Init+0x1da>
        pclk = HAL_RCC_GetSysClockFreq();
 80028ba:	f7fe fbb7 	bl	800102c <HAL_RCC_GetSysClockFreq>
        break;
 80028be:	e7f4      	b.n	80028aa <HAL_UART_Init+0x1da>
 80028c0:	40013800 	.word	0x40013800
 80028c4:	40004400 	.word	0x40004400
 80028c8:	40004800 	.word	0x40004800
 80028cc:	40004c00 	.word	0x40004c00
 80028d0:	40005000 	.word	0x40005000
 80028d4:	40021000 	.word	0x40021000
 80028d8:	007a1200 	.word	0x007a1200
 80028dc:	00f42400 	.word	0x00f42400

080028e0 <UART_Start_Receive_IT>:
{
 80028e0:	b410      	push	{r4}
  UART_MASK_COMPUTATION(huart);
 80028e2:	6884      	ldr	r4, [r0, #8]
  huart->pRxBuffPtr  = pData;
 80028e4:	6541      	str	r1, [r0, #84]	@ 0x54
  huart->RxISR       = NULL;
 80028e6:	2300      	movs	r3, #0
  UART_MASK_COMPUTATION(huart);
 80028e8:	f5b4 5f80 	cmp.w	r4, #4096	@ 0x1000
  huart->RxXferSize  = Size;
 80028ec:	f8a0 2058 	strh.w	r2, [r0, #88]	@ 0x58
  huart->RxXferCount = Size;
 80028f0:	f8a0 205a 	strh.w	r2, [r0, #90]	@ 0x5a
  huart->RxISR       = NULL;
 80028f4:	6683      	str	r3, [r0, #104]	@ 0x68
  UART_MASK_COMPUTATION(huart);
 80028f6:	d044      	beq.n	8002982 <UART_Start_Receive_IT+0xa2>
 80028f8:	2c00      	cmp	r4, #0
 80028fa:	d03c      	beq.n	8002976 <UART_Start_Receive_IT+0x96>
  huart->ErrorCode = HAL_UART_ERROR_NONE;
 80028fc:	2400      	movs	r4, #0
  huart->RxState = HAL_UART_STATE_BUSY_RX;
 80028fe:	2122      	movs	r1, #34	@ 0x22
 8002900:	6802      	ldr	r2, [r0, #0]
  huart->ErrorCode = HAL_UART_ERROR_NONE;
 8002902:	f8c0 4084 	str.w	r4, [r0, #132]	@ 0x84
  UART_MASK_COMPUTATION(huart);
 8002906:	f8a0 305c 	strh.w	r3, [r0, #92]	@ 0x5c
  huart->RxState = HAL_UART_STATE_BUSY_RX;
 800290a:	f8c0 1080 	str.w	r1, [r0, #128]	@ 0x80
   __ASM volatile ("ldrex %0, %1" : "=r" (result) : "Q" (*addr) );
 800290e:	f102 0308 	add.w	r3, r2, #8
 8002912:	e853 3f00 	ldrex	r3, [r3]
  ATOMIC_SET_BIT(huart->Instance->CR3, USART_CR3_EIE);
 8002916:	f043 0301 	orr.w	r3, r3, #1
   __ASM volatile ("strex %0, %2, %1" : "=&r" (result), "=Q" (*addr) : "r" (value) );
 800291a:	f102 0408 	add.w	r4, r2, #8
 800291e:	e844 3100 	strex	r1, r3, [r4]
 8002922:	2900      	cmp	r1, #0
 8002924:	d1f3      	bne.n	800290e <UART_Start_Receive_IT+0x2e>
  if ((huart->Init.WordLength == UART_WORDLENGTH_9B) && (huart->Init.Parity == UART_PARITY_NONE))
 8002926:	6883      	ldr	r3, [r0, #8]
 8002928:	6901      	ldr	r1, [r0, #16]
 800292a:	f5b3 5f80 	cmp.w	r3, #4096	@ 0x1000
 800292e:	d00e      	beq.n	800294e <UART_Start_Receive_IT+0x6e>
 8002930:	4b1d      	ldr	r3, [pc, #116]	@ (80029a8 <UART_Start_Receive_IT+0xc8>)
 8002932:	6683      	str	r3, [r0, #104]	@ 0x68
  if (huart->Init.Parity != UART_PARITY_NONE)
 8002934:	b971      	cbnz	r1, 8002954 <UART_Start_Receive_IT+0x74>
   __ASM volatile ("ldrex %0, %1" : "=r" (result) : "Q" (*addr) );
 8002936:	e852 3f00 	ldrex	r3, [r2]
    ATOMIC_SET_BIT(huart->Instance->CR1, USART_CR1_RXNEIE);
 800293a:	f043 0320 	orr.w	r3, r3, #32
   __ASM volatile ("strex %0, %2, %1" : "=&r" (result), "=Q" (*addr) : "r" (value) );
 800293e:	e842 3100 	strex	r1, r3, [r2]
 8002942:	2900      	cmp	r1, #0
 8002944:	d1f7      	bne.n	8002936 <UART_Start_Receive_IT+0x56>
}
 8002946:	2000      	movs	r0, #0
 8002948:	f85d 4b04 	ldr.w	r4, [sp], #4
 800294c:	4770      	bx	lr
  if ((huart->Init.WordLength == UART_WORDLENGTH_9B) && (huart->Init.Parity == UART_PARITY_NONE))
 800294e:	b1f9      	cbz	r1, 8002990 <UART_Start_Receive_IT+0xb0>
 8002950:	4b15      	ldr	r3, [pc, #84]	@ (80029a8 <UART_Start_Receive_IT+0xc8>)
 8002952:	6683      	str	r3, [r0, #104]	@ 0x68
   __ASM volatile ("ldrex %0, %1" : "=r" (result) : "Q" (*addr) );
 8002954:	e852 3f00 	ldrex	r3, [r2]
    ATOMIC_SET_BIT(huart->Instance->CR1, USART_CR1_PEIE | USART_CR1_RXNEIE);
 8002958:	f443 7390 	orr.w	r3, r3, #288	@ 0x120
   __ASM volatile ("strex %0, %2, %1" : "=&r" (result), "=Q" (*addr) : "r" (value) );
 800295c:	e842 3100 	strex	r1, r3, [r2]
 8002960:	2900      	cmp	r1, #0
 8002962:	d0f0      	beq.n	8002946 <UART_Start_Receive_IT+0x66>
   __ASM volatile ("ldrex %0, %1" : "=r" (result) : "Q" (*addr) );
 8002964:	e852 3f00 	ldrex	r3, [r2]
 8002968:	f443 7390 	orr.w	r3, r3, #288	@ 0x120
   __ASM volatile ("strex %0, %2, %1" : "=&r" (result), "=Q" (*addr) : "r" (value) );
 800296c:	e842 3100 	strex	r1, r3, [r2]
 8002970:	2900      	cmp	r1, #0
 8002972:	d1ef      	bne.n	8002954 <UART_Start_Receive_IT+0x74>
 8002974:	e7e7      	b.n	8002946 <UART_Start_Receive_IT+0x66>
  UART_MASK_COMPUTATION(huart);
 8002976:	6903      	ldr	r3, [r0, #16]
 8002978:	2b00      	cmp	r3, #0
 800297a:	bf0c      	ite	eq
 800297c:	23ff      	moveq	r3, #255	@ 0xff
 800297e:	237f      	movne	r3, #127	@ 0x7f
 8002980:	e7bc      	b.n	80028fc <UART_Start_Receive_IT+0x1c>
 8002982:	6902      	ldr	r2, [r0, #16]
 8002984:	2a00      	cmp	r2, #0
 8002986:	f240 13ff 	movw	r3, #511	@ 0x1ff
 800298a:	bf18      	it	ne
 800298c:	23ff      	movne	r3, #255	@ 0xff
 800298e:	e7b5      	b.n	80028fc <UART_Start_Receive_IT+0x1c>
 8002990:	4b06      	ldr	r3, [pc, #24]	@ (80029ac <UART_Start_Receive_IT+0xcc>)
 8002992:	6683      	str	r3, [r0, #104]	@ 0x68
   __ASM volatile ("ldrex %0, %1" : "=r" (result) : "Q" (*addr) );
 8002994:	e852 3f00 	ldrex	r3, [r2]
    ATOMIC_SET_BIT(huart->Instance->CR1, USART_CR1_RXNEIE);
 8002998:	f043 0320 	orr.w	r3, r3, #32
   __ASM volatile ("strex %0, %2, %1" : "=&r" (result), "=Q" (*addr) : "r" (value) );
 800299c:	e842 3100 	strex	r1, r3, [r2]
 80029a0:	2900      	cmp	r1, #0
 80029a2:	d1c8      	bne.n	8002936 <UART_Start_Receive_IT+0x56>
 80029a4:	e7cf      	b.n	8002946 <UART_Start_Receive_IT+0x66>
 80029a6:	bf00      	nop
 80029a8:	08002385 	.word	0x08002385
 80029ac:	0800233d 	.word	0x0800233d

080029b0 <HAL_UART_Receive_IT>:
  if (huart->RxState == HAL_UART_STATE_READY)
 80029b0:	f8d0 3080 	ldr.w	r3, [r0, #128]	@ 0x80
 80029b4:	2b20      	cmp	r3, #32
 80029b6:	d115      	bne.n	80029e4 <HAL_UART_Receive_IT+0x34>
    if ((pData == NULL) || (Size == 0U))
 80029b8:	b101      	cbz	r1, 80029bc <HAL_UART_Receive_IT+0xc>
 80029ba:	b90a      	cbnz	r2, 80029c0 <HAL_UART_Receive_IT+0x10>
      return HAL_ERROR;
 80029bc:	2001      	movs	r0, #1
}
 80029be:	4770      	bx	lr
{
 80029c0:	b430      	push	{r4, r5}
    huart->ReceptionType = HAL_UART_RECEPTION_STANDARD;
 80029c2:	2300      	movs	r3, #0
    if (READ_BIT(huart->Instance->CR2, USART_CR2_RTOEN) != 0U)
 80029c4:	6804      	ldr	r4, [r0, #0]
    huart->ReceptionType = HAL_UART_RECEPTION_STANDARD;
 80029c6:	6603      	str	r3, [r0, #96]	@ 0x60
    if (READ_BIT(huart->Instance->CR2, USART_CR2_RTOEN) != 0U)
 80029c8:	6863      	ldr	r3, [r4, #4]
 80029ca:	021b      	lsls	r3, r3, #8
 80029cc:	d507      	bpl.n	80029de <HAL_UART_Receive_IT+0x2e>
   __ASM volatile ("ldrex %0, %1" : "=r" (result) : "Q" (*addr) );
 80029ce:	e854 3f00 	ldrex	r3, [r4]
      ATOMIC_SET_BIT(huart->Instance->CR1, USART_CR1_RTOIE);
 80029d2:	f043 6380 	orr.w	r3, r3, #67108864	@ 0x4000000
   __ASM volatile ("strex %0, %2, %1" : "=&r" (result), "=Q" (*addr) : "r" (value) );
 80029d6:	e844 3500 	strex	r5, r3, [r4]
 80029da:	2d00      	cmp	r5, #0
 80029dc:	d1f7      	bne.n	80029ce <HAL_UART_Receive_IT+0x1e>
}
 80029de:	bc30      	pop	{r4, r5}
    return (UART_Start_Receive_IT(huart, pData, Size));
 80029e0:	f7ff bf7e 	b.w	80028e0 <UART_Start_Receive_IT>
    return HAL_BUSY;
 80029e4:	2002      	movs	r0, #2
 80029e6:	4770      	bx	lr

080029e8 <HAL_UARTEx_WakeupCallback>:
  UNUSED(huart);

  /* NOTE : This function should not be modified, when the callback is needed,
            the HAL_UARTEx_WakeupCallback can be implemented in the user file.
   */
}
 80029e8:	4770      	bx	lr
 80029ea:	bf00      	nop

080029ec <USB_DisableGlobalInt>:
                   USB_CNTR_SUSPM | USB_CNTR_ERRM |
                   USB_CNTR_SOFM | USB_CNTR_ESOFM |
                   USB_CNTR_RESETM;

  /* Clear interrupt mask */
  USBx->CNTR &= (uint16_t)(~winterruptmask);
 80029ec:	f8b0 1040 	ldrh.w	r1, [r0, #64]	@ 0x40
{
 80029f0:	4603      	mov	r3, r0
  USBx->CNTR &= (uint16_t)(~winterruptmask);
 80029f2:	f244 02ff 	movw	r2, #16639	@ 0x40ff
 80029f6:	400a      	ands	r2, r1

  return HAL_OK;
}
 80029f8:	2000      	movs	r0, #0
  USBx->CNTR &= (uint16_t)(~winterruptmask);
 80029fa:	f8a3 2040 	strh.w	r2, [r3, #64]	@ 0x40
}
 80029fe:	4770      	bx	lr

08002a00 <USB_DevInit>:
  * @param  cfg  pointer to a USB_CfgTypeDef structure that contains
  *         the configuration information for the specified USBx peripheral.
  * @retval HAL status
  */
HAL_StatusTypeDef USB_DevInit(USB_TypeDef *USBx, USB_CfgTypeDef cfg)
{
 8002a00:	4603      	mov	r3, r0
 8002a02:	b082      	sub	sp, #8
  /* Prevent unused argument(s) compilation warning */
  UNUSED(cfg);

  /* Init Device */
  /* CNTR_FRES = 1 */
  USBx->CNTR = (uint16_t)USB_CNTR_FRES;
 8002a04:	f04f 0c01 	mov.w	ip, #1

  /* CNTR_FRES = 0 */
  USBx->CNTR = 0U;
 8002a08:	2000      	movs	r0, #0
  USBx->CNTR = (uint16_t)USB_CNTR_FRES;
 8002a0a:	f8a3 c040 	strh.w	ip, [r3, #64]	@ 0x40
{
 8002a0e:	f10d 0c08 	add.w	ip, sp, #8
  USBx->CNTR = 0U;
 8002a12:	f8a3 0040 	strh.w	r0, [r3, #64]	@ 0x40
{
 8002a16:	e90c 0006 	stmdb	ip, {r1, r2}

  /* Clear pending interrupts */
  USBx->ISTR = 0U;
 8002a1a:	f8a3 0044 	strh.w	r0, [r3, #68]	@ 0x44

  /*Set Btable Address*/
  USBx->BTABLE = BTABLE_ADDRESS;
 8002a1e:	f8a3 0050 	strh.w	r0, [r3, #80]	@ 0x50

  return HAL_OK;
}
 8002a22:	b002      	add	sp, #8
 8002a24:	4770      	bx	lr
 8002a26:	bf00      	nop

08002a28 <SystemClock_Config>:
/**
  * @brief System Clock Configuration
  * @retval None
  */
void SystemClock_Config(void)
{
 8002a28:	b530      	push	{r4, r5, lr}
 8002a2a:	b0a1      	sub	sp, #132	@ 0x84
  RCC_OscInitTypeDef RCC_OscInitStruct = {0};
 8002a2c:	2100      	movs	r1, #0
  RCC_ClkInitTypeDef RCC_ClkInitStruct = {0};
  RCC_PeriphCLKInitTypeDef PeriphClkInit = {0};
 8002a2e:	223c      	movs	r2, #60	@ 0x3c
 8002a30:	a811      	add	r0, sp, #68	@ 0x44
  RCC_OscInitTypeDef RCC_OscInitStruct = {0};
 8002a32:	e9cd 110b 	strd	r1, r1, [sp, #44]	@ 0x2c
  RCC_ClkInitTypeDef RCC_ClkInitStruct = {0};
 8002a36:	e9cd 1102 	strd	r1, r1, [sp, #8]
 8002a3a:	e9cd 1104 	strd	r1, r1, [sp, #16]
  RCC_OscInitTypeDef RCC_OscInitStruct = {0};
 8002a3e:	9108      	str	r1, [sp, #32]
  RCC_ClkInitTypeDef RCC_ClkInitStruct = {0};
 8002a40:	9101      	str	r1, [sp, #4]
  RCC_OscInitTypeDef RCC_OscInitStruct = {0};
 8002a42:	9109      	str	r1, [sp, #36]	@ 0x24
  RCC_PeriphCLKInitTypeDef PeriphClkInit = {0};
 8002a44:	f001 f835 	bl	8003ab2 <memset>

  /** Initializes the RCC Oscillators according to the specified parameters
  * in the RCC_OscInitTypeDef structure.
  */
  RCC_OscInitStruct.OscillatorType = RCC_OSCILLATORTYPE_HSE;
 8002a48:	f44f 3380 	mov.w	r3, #65536	@ 0x10000
 8002a4c:	2201      	movs	r2, #1
 8002a4e:	e9cd 2306 	strd	r2, r3, [sp, #24]
  RCC_OscInitStruct.HSEState = RCC_HSE_ON;
  RCC_OscInitStruct.HSEPredivValue = RCC_HSE_PREDIV_DIV1;
  RCC_OscInitStruct.HSIState = RCC_HSI_ON;
  RCC_OscInitStruct.PLL.PLLState = RCC_PLL_ON;
 8002a52:	2502      	movs	r5, #2
 8002a54:	f44f 3380 	mov.w	r3, #65536	@ 0x10000
 8002a58:	e9cd 530d 	strd	r5, r3, [sp, #52]	@ 0x34
  RCC_OscInitStruct.HSIState = RCC_HSI_ON;
 8002a5c:	2401      	movs	r4, #1
  RCC_OscInitStruct.PLL.PLLSource = RCC_PLLSOURCE_HSE;
  RCC_OscInitStruct.PLL.PLLMUL = RCC_PLL_MUL6;
 8002a5e:	f44f 1380 	mov.w	r3, #1048576	@ 0x100000
  if (HAL_RCC_OscConfig(&RCC_OscInitStruct) != HAL_OK)
 8002a62:	a806      	add	r0, sp, #24
  RCC_OscInitStruct.HSIState = RCC_HSI_ON;
 8002a64:	940a      	str	r4, [sp, #40]	@ 0x28
  RCC_OscInitStruct.PLL.PLLMUL = RCC_PLL_MUL6;
 8002a66:	930f      	str	r3, [sp, #60]	@ 0x3c
  if (HAL_RCC_OscConfig(&RCC_OscInitStruct) != HAL_OK)
 8002a68:	f7fd ff4e 	bl	8000908 <HAL_RCC_OscConfig>
 8002a6c:	b108      	cbz	r0, 8002a72 <SystemClock_Config+0x4a>
  __ASM volatile ("cpsid i" : : : "memory");
 8002a6e:	b672      	cpsid	i
void Error_Handler(void)
{
  /* USER CODE BEGIN Error_Handler_Debug */
  /* User can add his own implementation to report the HAL error return state */
  __disable_irq();
  while (1)
 8002a70:	e7fe      	b.n	8002a70 <SystemClock_Config+0x48>
  RCC_ClkInitStruct.ClockType = RCC_CLOCKTYPE_HCLK|RCC_CLOCKTYPE_SYSCLK
 8002a72:	4603      	mov	r3, r0
  RCC_ClkInitStruct.APB1CLKDivider = RCC_HCLK_DIV2;
 8002a74:	f44f 6280 	mov.w	r2, #1024	@ 0x400
 8002a78:	e9cd 3203 	strd	r3, r2, [sp, #12]
  RCC_ClkInitStruct.APB2CLKDivider = RCC_HCLK_DIV1;
 8002a7c:	9305      	str	r3, [sp, #20]
  if (HAL_RCC_ClockConfig(&RCC_ClkInitStruct, FLASH_LATENCY_1) != HAL_OK)
 8002a7e:	4621      	mov	r1, r4
  RCC_ClkInitStruct.ClockType = RCC_CLOCKTYPE_HCLK|RCC_CLOCKTYPE_SYSCLK
 8002a80:	230f      	movs	r3, #15
  if (HAL_RCC_ClockConfig(&RCC_ClkInitStruct, FLASH_LATENCY_1) != HAL_OK)
 8002a82:	a801      	add	r0, sp, #4
  RCC_ClkInitStruct.ClockType = RCC_CLOCKTYPE_HCLK|RCC_CLOCKTYPE_SYSCLK
 8002a84:	9301      	str	r3, [sp, #4]
  RCC_ClkInitStruct.SYSCLKSource = RCC_SYSCLKSOURCE_PLLCLK;
 8002a86:	9502      	str	r5, [sp, #8]
  if (HAL_RCC_ClockConfig(&RCC_ClkInitStruct, FLASH_LATENCY_1) != HAL_OK)
 8002a88:	f7fe fa00 	bl	8000e8c <HAL_RCC_ClockConfig>
 8002a8c:	4603      	mov	r3, r0
 8002a8e:	b108      	cbz	r0, 8002a94 <SystemClock_Config+0x6c>
 8002a90:	b672      	cpsid	i
  while (1)
 8002a92:	e7fe      	b.n	8002a92 <SystemClock_Config+0x6a>
  PeriphClkInit.PeriphClockSelection = RCC_PERIPHCLK_USB|RCC_PERIPHCLK_UART4
 8002a94:	4907      	ldr	r1, [pc, #28]	@ (8002ab4 <SystemClock_Config+0x8c>)
 8002a96:	9111      	str	r1, [sp, #68]	@ 0x44
  PeriphClkInit.USBClockSelection = RCC_USBCLKSOURCE_PLL;
 8002a98:	f44f 0280 	mov.w	r2, #4194304	@ 0x400000
  if (HAL_RCCEx_PeriphCLKConfig(&PeriphClkInit) != HAL_OK)
 8002a9c:	a811      	add	r0, sp, #68	@ 0x44
  PeriphClkInit.Uart4ClockSelection = RCC_UART4CLKSOURCE_PCLK1;
 8002a9e:	9316      	str	r3, [sp, #88]	@ 0x58
  PeriphClkInit.USBClockSelection = RCC_USBCLKSOURCE_PLL;
 8002aa0:	921f      	str	r2, [sp, #124]	@ 0x7c
  PeriphClkInit.Tim1ClockSelection = RCC_TIM1CLK_HCLK;
 8002aa2:	931d      	str	r3, [sp, #116]	@ 0x74
  if (HAL_RCCEx_PeriphCLKConfig(&PeriphClkInit) != HAL_OK)
 8002aa4:	f7fe fb1a 	bl	80010dc <HAL_RCCEx_PeriphCLKConfig>
 8002aa8:	b108      	cbz	r0, 8002aae <SystemClock_Config+0x86>
 8002aaa:	b672      	cpsid	i
  while (1)
 8002aac:	e7fe      	b.n	8002aac <SystemClock_Config+0x84>
}
 8002aae:	b021      	add	sp, #132	@ 0x84
 8002ab0:	bd30      	pop	{r4, r5, pc}
 8002ab2:	bf00      	nop
 8002ab4:	00021008 	.word	0x00021008

08002ab8 <main>:
{
 8002ab8:	b580      	push	{r7, lr}
  GPIO_InitTypeDef GPIO_InitStruct = {0};
 8002aba:	2400      	movs	r4, #0
{
 8002abc:	b09a      	sub	sp, #104	@ 0x68
  HAL_Init();
 8002abe:	f7fd fba7 	bl	8000210 <HAL_Init>
  SystemClock_Config();
 8002ac2:	f7ff ffb1 	bl	8002a28 <SystemClock_Config>
  GPIO_InitTypeDef GPIO_InitStruct = {0};
 8002ac6:	e9cd 440f 	strd	r4, r4, [sp, #60]	@ 0x3c
 8002aca:	e9cd 4411 	strd	r4, r4, [sp, #68]	@ 0x44
  __HAL_RCC_GPIOC_CLK_ENABLE();
 8002ace:	4bb2      	ldr	r3, [pc, #712]	@ (8002d98 <main+0x2e0>)
  GPIO_InitTypeDef GPIO_InitStruct = {0};
 8002ad0:	9413      	str	r4, [sp, #76]	@ 0x4c
  __HAL_RCC_GPIOC_CLK_ENABLE();
 8002ad2:	6959      	ldr	r1, [r3, #20]
 8002ad4:	f441 2100 	orr.w	r1, r1, #524288	@ 0x80000
 8002ad8:	6159      	str	r1, [r3, #20]
 8002ada:	6958      	ldr	r0, [r3, #20]
 8002adc:	f400 2000 	and.w	r0, r0, #524288	@ 0x80000
 8002ae0:	9001      	str	r0, [sp, #4]
 8002ae2:	9801      	ldr	r0, [sp, #4]
  __HAL_RCC_GPIOF_CLK_ENABLE();
 8002ae4:	6958      	ldr	r0, [r3, #20]
 8002ae6:	f440 0080 	orr.w	r0, r0, #4194304	@ 0x400000
 8002aea:	6158      	str	r0, [r3, #20]
 8002aec:	6958      	ldr	r0, [r3, #20]
 8002aee:	f400 0080 	and.w	r0, r0, #4194304	@ 0x400000
 8002af2:	9002      	str	r0, [sp, #8]
 8002af4:	9802      	ldr	r0, [sp, #8]
  __HAL_RCC_GPIOA_CLK_ENABLE();
 8002af6:	6958      	ldr	r0, [r3, #20]
 8002af8:	f440 3000 	orr.w	r0, r0, #131072	@ 0x20000
 8002afc:	6158      	str	r0, [r3, #20]
 8002afe:	6958      	ldr	r0, [r3, #20]
 8002b00:	f400 3000 	and.w	r0, r0, #131072	@ 0x20000
 8002b04:	9003      	str	r0, [sp, #12]
 8002b06:	9803      	ldr	r0, [sp, #12]
  __HAL_RCC_GPIOE_CLK_ENABLE();
 8002b08:	6958      	ldr	r0, [r3, #20]
 8002b0a:	f440 1000 	orr.w	r0, r0, #2097152	@ 0x200000
 8002b0e:	6158      	str	r0, [r3, #20]
 8002b10:	695b      	ldr	r3, [r3, #20]
 8002b12:	f403 1300 	and.w	r3, r3, #2097152	@ 0x200000
  HAL_GPIO_WritePin(GPIOA, DIR1_Pin|DIR2_Pin, GPIO_PIN_RESET);
 8002b16:	4622      	mov	r2, r4
 8002b18:	2103      	movs	r1, #3
  __HAL_RCC_GPIOE_CLK_ENABLE();
 8002b1a:	9304      	str	r3, [sp, #16]
  HAL_GPIO_WritePin(GPIOA, DIR1_Pin|DIR2_Pin, GPIO_PIN_RESET);
 8002b1c:	f04f 4090 	mov.w	r0, #1207959552	@ 0x48000000
  __HAL_RCC_GPIOE_CLK_ENABLE();
 8002b20:	9b04      	ldr	r3, [sp, #16]
  HAL_GPIO_WritePin(GPIOA, DIR1_Pin|DIR2_Pin, GPIO_PIN_RESET);
 8002b22:	f7fd fe09 	bl	8000738 <HAL_GPIO_WritePin>
  HAL_GPIO_WritePin(GPIOE, LD4_Pin|LD5_Pin|LD7_Pin|LD9_Pin
 8002b26:	4622      	mov	r2, r4
 8002b28:	489c      	ldr	r0, [pc, #624]	@ (8002d9c <main+0x2e4>)
 8002b2a:	f44f 417d 	mov.w	r1, #64768	@ 0xfd00
 8002b2e:	f7fd fe03 	bl	8000738 <HAL_GPIO_WritePin>
  GPIO_InitStruct.Pull = GPIO_PULLUP;
 8002b32:	2501      	movs	r5, #1
  HAL_GPIO_Init(GPIOF, &GPIO_InitStruct);
 8002b34:	489a      	ldr	r0, [pc, #616]	@ (8002da0 <main+0x2e8>)
  GPIO_InitStruct.Pull = GPIO_PULLUP;
 8002b36:	9511      	str	r5, [sp, #68]	@ 0x44
  HAL_GPIO_Init(GPIOF, &GPIO_InitStruct);
 8002b38:	a90f      	add	r1, sp, #60	@ 0x3c
  GPIO_InitStruct.Pin = GPIO_PIN_2;
 8002b3a:	2604      	movs	r6, #4
  GPIO_InitStruct.Mode = GPIO_MODE_INPUT;
 8002b3c:	e9cd 640f 	strd	r6, r4, [sp, #60]	@ 0x3c
  HAL_GPIO_Init(GPIOF, &GPIO_InitStruct);
 8002b40:	f7fd fc44 	bl	80003cc <HAL_GPIO_Init>
  HAL_GPIO_Init(DIR1_GPIO_Port, &GPIO_InitStruct);
 8002b44:	a90f      	add	r1, sp, #60	@ 0x3c
 8002b46:	f04f 4090 	mov.w	r0, #1207959552	@ 0x48000000
  GPIO_InitStruct.Speed = GPIO_SPEED_FREQ_LOW;
 8002b4a:	e9cd 5411 	strd	r5, r4, [sp, #68]	@ 0x44
  GPIO_InitStruct.Mode = GPIO_MODE_OUTPUT_PP;
 8002b4e:	e9cd 550f 	strd	r5, r5, [sp, #60]	@ 0x3c
  GPIO_InitStruct.Pin = DIR2_Pin;
 8002b52:	2702      	movs	r7, #2
  HAL_GPIO_Init(DIR1_GPIO_Port, &GPIO_InitStruct);
 8002b54:	f7fd fc3a 	bl	80003cc <HAL_GPIO_Init>
  HAL_GPIO_Init(DIR2_GPIO_Port, &GPIO_InitStruct);
 8002b58:	a90f      	add	r1, sp, #60	@ 0x3c
 8002b5a:	f04f 4090 	mov.w	r0, #1207959552	@ 0x48000000
  GPIO_InitStruct.Speed = GPIO_SPEED_FREQ_LOW;
 8002b5e:	e9cd 4411 	strd	r4, r4, [sp, #68]	@ 0x44
  GPIO_InitStruct.Mode = GPIO_MODE_OUTPUT_PP;
 8002b62:	e9cd 750f 	strd	r7, r5, [sp, #60]	@ 0x3c
  HAL_GPIO_Init(DIR2_GPIO_Port, &GPIO_InitStruct);
 8002b66:	f7fd fc31 	bl	80003cc <HAL_GPIO_Init>
  GPIO_InitStruct.Pin = LD4_Pin|LD5_Pin|LD7_Pin|LD9_Pin
 8002b6a:	f44f 437d 	mov.w	r3, #64768	@ 0xfd00
  HAL_GPIO_Init(GPIOE, &GPIO_InitStruct);
 8002b6e:	488b      	ldr	r0, [pc, #556]	@ (8002d9c <main+0x2e4>)
  GPIO_InitStruct.Speed = GPIO_SPEED_FREQ_LOW;
 8002b70:	9412      	str	r4, [sp, #72]	@ 0x48
  HAL_GPIO_Init(GPIOE, &GPIO_InitStruct);
 8002b72:	a90f      	add	r1, sp, #60	@ 0x3c
  GPIO_InitStruct.Pull = GPIO_NOPULL;
 8002b74:	e9cd 5410 	strd	r5, r4, [sp, #64]	@ 0x40
  GPIO_InitStruct.Pin = LD4_Pin|LD5_Pin|LD7_Pin|LD9_Pin
 8002b78:	930f      	str	r3, [sp, #60]	@ 0x3c
  HAL_GPIO_Init(GPIOE, &GPIO_InitStruct);
 8002b7a:	f7fd fc27 	bl	80003cc <HAL_GPIO_Init>
  GPIO_InitStruct.Pin = GPIO_PIN_10;
 8002b7e:	f44f 6380 	mov.w	r3, #1024	@ 0x400
  HAL_GPIO_Init(GPIOA, &GPIO_InitStruct);
 8002b82:	f04f 4090 	mov.w	r0, #1207959552	@ 0x48000000
 8002b86:	a90f      	add	r1, sp, #60	@ 0x3c
  GPIO_InitStruct.Mode = GPIO_MODE_INPUT;
 8002b88:	9410      	str	r4, [sp, #64]	@ 0x40
  GPIO_InitStruct.Pin = GPIO_PIN_10;
 8002b8a:	930f      	str	r3, [sp, #60]	@ 0x3c
  GPIO_InitStruct.Pull = GPIO_PULLUP;
 8002b8c:	9511      	str	r5, [sp, #68]	@ 0x44
  HAL_GPIO_Init(GPIOA, &GPIO_InitStruct);
 8002b8e:	f7fd fc1d 	bl	80003cc <HAL_GPIO_Init>
  hspi1.Instance = SPI1;
 8002b92:	4884      	ldr	r0, [pc, #528]	@ (8002da4 <main+0x2ec>)
  hspi1.Init.BaudRatePrescaler = SPI_BAUDRATEPRESCALER_4;
 8002b94:	2308      	movs	r3, #8
  hspi1.Init.CLKPhase = SPI_PHASE_1EDGE;
 8002b96:	e9c0 4404 	strd	r4, r4, [r0, #16]
  hspi1.Init.TIMode = SPI_TIMODE_DISABLE;
 8002b9a:	e9c0 4408 	strd	r4, r4, [r0, #32]
  hspi1.Init.Direction = SPI_DIRECTION_2LINES;
 8002b9e:	6084      	str	r4, [r0, #8]
  hspi1.Init.CRCCalculation = SPI_CRCCALCULATION_DISABLE;
 8002ba0:	6284      	str	r4, [r0, #40]	@ 0x28
  hspi1.Init.CRCLength = SPI_CRC_LENGTH_DATASIZE;
 8002ba2:	6304      	str	r4, [r0, #48]	@ 0x30
  hspi1.Init.Mode = SPI_MODE_MASTER;
 8002ba4:	4c80      	ldr	r4, [pc, #512]	@ (8002da8 <main+0x2f0>)
  hspi1.Init.BaudRatePrescaler = SPI_BAUDRATEPRESCALER_4;
 8002ba6:	61c3      	str	r3, [r0, #28]
  hspi1.Init.NSSPMode = SPI_NSS_PULSE_ENABLE;
 8002ba8:	6343      	str	r3, [r0, #52]	@ 0x34
  hspi1.Init.Mode = SPI_MODE_MASTER;
 8002baa:	f44f 7382 	mov.w	r3, #260	@ 0x104
 8002bae:	e9c0 4300 	strd	r4, r3, [r0]
  hspi1.Init.DataSize = SPI_DATASIZE_4BIT;
 8002bb2:	f44f 7340 	mov.w	r3, #768	@ 0x300
 8002bb6:	60c3      	str	r3, [r0, #12]
  hspi1.Init.NSS = SPI_NSS_SOFT;
 8002bb8:	f44f 7300 	mov.w	r3, #512	@ 0x200
 8002bbc:	6183      	str	r3, [r0, #24]
  hspi1.Init.CRCPolynomial = 7;
 8002bbe:	2307      	movs	r3, #7
 8002bc0:	62c3      	str	r3, [r0, #44]	@ 0x2c
  if (HAL_SPI_Init(&hspi1) != HAL_OK)
 8002bc2:	f7fe fb93 	bl	80012ec <HAL_SPI_Init>
 8002bc6:	b108      	cbz	r0, 8002bcc <main+0x114>
 8002bc8:	b672      	cpsid	i
  while (1)
 8002bca:	e7fe      	b.n	8002bca <main+0x112>
  hpcd_USB_FS.Instance = USB;
 8002bcc:	4603      	mov	r3, r0
 8002bce:	4877      	ldr	r0, [pc, #476]	@ (8002dac <main+0x2f4>)
  hpcd_USB_FS.Init.low_power_enable = DISABLE;
 8002bd0:	7243      	strb	r3, [r0, #9]
  hpcd_USB_FS.Init.battery_charging_enable = DISABLE;
 8002bd2:	72c3      	strb	r3, [r0, #11]
  hpcd_USB_FS.Instance = USB;
 8002bd4:	4b76      	ldr	r3, [pc, #472]	@ (8002db0 <main+0x2f8>)
 8002bd6:	6003      	str	r3, [r0, #0]
  hpcd_USB_FS.Init.dev_endpoints = 8;
 8002bd8:	f44f 7302 	mov.w	r3, #520	@ 0x208
  hpcd_USB_FS.Init.phy_itface = PCD_PHY_EMBEDDED;
 8002bdc:	71c7      	strb	r7, [r0, #7]
  hpcd_USB_FS.Init.dev_endpoints = 8;
 8002bde:	8083      	strh	r3, [r0, #4]
  if (HAL_PCD_Init(&hpcd_USB_FS) != HAL_OK)
 8002be0:	f7fd fdb0 	bl	8000744 <HAL_PCD_Init>
 8002be4:	4604      	mov	r4, r0
 8002be6:	b108      	cbz	r0, 8002bec <main+0x134>
 8002be8:	b672      	cpsid	i
  while (1)
 8002bea:	e7fe      	b.n	8002bea <main+0x132>
  htim1.Instance = TIM1;
 8002bec:	4d71      	ldr	r5, [pc, #452]	@ (8002db4 <main+0x2fc>)
  TIM_MasterConfigTypeDef sMasterConfig = {0};
 8002bee:	9005      	str	r0, [sp, #20]
 8002bf0:	e9cd 0006 	strd	r0, r0, [sp, #24]
  TIM_OC_InitTypeDef sConfigOC = {0};
 8002bf4:	e9cd 0009 	strd	r0, r0, [sp, #36]	@ 0x24
 8002bf8:	e9cd 000b 	strd	r0, r0, [sp, #44]	@ 0x2c
 8002bfc:	e9cd 000d 	strd	r0, r0, [sp, #52]	@ 0x34
 8002c00:	9008      	str	r0, [sp, #32]
  TIM_BreakDeadTimeConfigTypeDef sBreakDeadTimeConfig = {0};
 8002c02:	4601      	mov	r1, r0
 8002c04:	222c      	movs	r2, #44	@ 0x2c
 8002c06:	a80f      	add	r0, sp, #60	@ 0x3c
 8002c08:	f000 ff53 	bl	8003ab2 <memset>
  htim1.Init.Period = 65535;
 8002c0c:	f64f 77ff 	movw	r7, #65535	@ 0xffff
  htim1.Instance = TIM1;
 8002c10:	4b69      	ldr	r3, [pc, #420]	@ (8002db8 <main+0x300>)
  htim1.Init.AutoReloadPreload = TIM_AUTORELOAD_PRELOAD_DISABLE;
 8002c12:	61ac      	str	r4, [r5, #24]
  if (HAL_TIM_PWM_Init(&htim1) != HAL_OK)
 8002c14:	4628      	mov	r0, r5
  htim1.Init.CounterMode = TIM_COUNTERMODE_UP;
 8002c16:	e9c5 4401 	strd	r4, r4, [r5, #4]
  htim1.Init.RepetitionCounter = 0;
 8002c1a:	e9c5 4404 	strd	r4, r4, [r5, #16]
  htim1.Instance = TIM1;
 8002c1e:	602b      	str	r3, [r5, #0]
  htim1.Init.Period = 65535;
 8002c20:	60ef      	str	r7, [r5, #12]
  if (HAL_TIM_PWM_Init(&htim1) != HAL_OK)
 8002c22:	f7fe fcad 	bl	8001580 <HAL_TIM_PWM_Init>
 8002c26:	b108      	cbz	r0, 8002c2c <main+0x174>
 8002c28:	b672      	cpsid	i
  while (1)
 8002c2a:	e7fe      	b.n	8002c2a <main+0x172>
  sMasterConfig.MasterOutputTrigger2 = TIM_TRGO2_RESET;
 8002c2c:	e9cd 0005 	strd	r0, r0, [sp, #20]
  sMasterConfig.MasterSlaveMode = TIM_MASTERSLAVEMODE_DISABLE;
 8002c30:	9007      	str	r0, [sp, #28]
  if (HAL_TIMEx_MasterConfigSynchronization(&htim1, &sMasterConfig) != HAL_OK)
 8002c32:	a905      	add	r1, sp, #20
 8002c34:	4628      	mov	r0, r5
 8002c36:	f7ff f853 	bl	8001ce0 <HAL_TIMEx_MasterConfigSynchronization>
 8002c3a:	4602      	mov	r2, r0
 8002c3c:	b108      	cbz	r0, 8002c42 <main+0x18a>
 8002c3e:	b672      	cpsid	i
  while (1)
 8002c40:	e7fe      	b.n	8002c40 <main+0x188>
  sConfigOC.OCPolarity = TIM_OCPOLARITY_HIGH;
 8002c42:	e9cd 0009 	strd	r0, r0, [sp, #36]	@ 0x24
  sConfigOC.OCFastMode = TIM_OCFAST_DISABLE;
 8002c46:	e9cd 000b 	strd	r0, r0, [sp, #44]	@ 0x2c
  sConfigOC.OCNIdleState = TIM_OCNIDLESTATE_RESET;
 8002c4a:	e9cd 000d 	strd	r0, r0, [sp, #52]	@ 0x34
  sConfigOC.OCMode = TIM_OCMODE_PWM2;
 8002c4e:	2370      	movs	r3, #112	@ 0x70
  if (HAL_TIM_PWM_ConfigChannel(&htim1, &sConfigOC, TIM_CHANNEL_1) != HAL_OK)
 8002c50:	a908      	add	r1, sp, #32
 8002c52:	4628      	mov	r0, r5
  sConfigOC.OCMode = TIM_OCMODE_PWM2;
 8002c54:	9308      	str	r3, [sp, #32]
  if (HAL_TIM_PWM_ConfigChannel(&htim1, &sConfigOC, TIM_CHANNEL_1) != HAL_OK)
 8002c56:	f7fe ff25 	bl	8001aa4 <HAL_TIM_PWM_ConfigChannel>
 8002c5a:	b108      	cbz	r0, 8002c60 <main+0x1a8>
 8002c5c:	b672      	cpsid	i
  while (1)
 8002c5e:	e7fe      	b.n	8002c5e <main+0x1a6>
  sBreakDeadTimeConfig.BreakPolarity = TIM_BREAKPOLARITY_HIGH;
 8002c60:	f44f 5300 	mov.w	r3, #8192	@ 0x2000
  sBreakDeadTimeConfig.OffStateIDLEMode = TIM_OSSI_DISABLE;
 8002c64:	e9cd 000f 	strd	r0, r0, [sp, #60]	@ 0x3c
  sBreakDeadTimeConfig.DeadTime = 0;
 8002c68:	e9cd 0011 	strd	r0, r0, [sp, #68]	@ 0x44
  sBreakDeadTimeConfig.Break2State = TIM_BREAK2_DISABLE;
 8002c6c:	e9cd 0015 	strd	r0, r0, [sp, #84]	@ 0x54
  sBreakDeadTimeConfig.AutomaticOutput = TIM_AUTOMATICOUTPUT_DISABLE;
 8002c70:	e9cd 0018 	strd	r0, r0, [sp, #96]	@ 0x60
  sBreakDeadTimeConfig.BreakState = TIM_BREAK_DISABLE;
 8002c74:	9013      	str	r0, [sp, #76]	@ 0x4c
  sBreakDeadTimeConfig.BreakPolarity = TIM_BREAKPOLARITY_HIGH;
 8002c76:	9314      	str	r3, [sp, #80]	@ 0x50
  if (HAL_TIMEx_ConfigBreakDeadTime(&htim1, &sBreakDeadTimeConfig) != HAL_OK)
 8002c78:	a90f      	add	r1, sp, #60	@ 0x3c
  sBreakDeadTimeConfig.Break2Polarity = TIM_BREAK2POLARITY_HIGH;
 8002c7a:	f04f 7300 	mov.w	r3, #33554432	@ 0x2000000
  if (HAL_TIMEx_ConfigBreakDeadTime(&htim1, &sBreakDeadTimeConfig) != HAL_OK)
 8002c7e:	4628      	mov	r0, r5
  sBreakDeadTimeConfig.Break2Polarity = TIM_BREAK2POLARITY_HIGH;
 8002c80:	9317      	str	r3, [sp, #92]	@ 0x5c
  if (HAL_TIMEx_ConfigBreakDeadTime(&htim1, &sBreakDeadTimeConfig) != HAL_OK)
 8002c82:	f7ff f879 	bl	8001d78 <HAL_TIMEx_ConfigBreakDeadTime>
 8002c86:	4604      	mov	r4, r0
 8002c88:	b108      	cbz	r0, 8002c8e <main+0x1d6>
 8002c8a:	b672      	cpsid	i
  while (1)
 8002c8c:	e7fe      	b.n	8002c8c <main+0x1d4>
  HAL_TIM_MspPostInit(&htim1);
 8002c8e:	4628      	mov	r0, r5
 8002c90:	f000 fb32 	bl	80032f8 <HAL_TIM_MspPostInit>
  htim15.Instance = TIM15;
 8002c94:	4d49      	ldr	r5, [pc, #292]	@ (8002dbc <main+0x304>)
  TIM_BreakDeadTimeConfigTypeDef sBreakDeadTimeConfig = {0};
 8002c96:	222c      	movs	r2, #44	@ 0x2c
 8002c98:	4621      	mov	r1, r4
 8002c9a:	a80f      	add	r0, sp, #60	@ 0x3c
  TIM_MasterConfigTypeDef sMasterConfig = {0};
 8002c9c:	e9cd 4405 	strd	r4, r4, [sp, #20]
  TIM_OC_InitTypeDef sConfigOC = {0};
 8002ca0:	e9cd 4407 	strd	r4, r4, [sp, #28]
 8002ca4:	e9cd 4409 	strd	r4, r4, [sp, #36]	@ 0x24
 8002ca8:	e9cd 440b 	strd	r4, r4, [sp, #44]	@ 0x2c
 8002cac:	e9cd 440d 	strd	r4, r4, [sp, #52]	@ 0x34
  TIM_BreakDeadTimeConfigTypeDef sBreakDeadTimeConfig = {0};
 8002cb0:	f000 feff 	bl	8003ab2 <memset>
  htim15.Init.Prescaler = 48;
 8002cb4:	4a42      	ldr	r2, [pc, #264]	@ (8002dc0 <main+0x308>)
  htim15.Init.AutoReloadPreload = TIM_AUTORELOAD_PRELOAD_DISABLE;
 8002cb6:	61ac      	str	r4, [r5, #24]
  htim15.Init.Prescaler = 48;
 8002cb8:	2330      	movs	r3, #48	@ 0x30
  if (HAL_TIM_PWM_Init(&htim15) != HAL_OK)
 8002cba:	4628      	mov	r0, r5
  htim15.Init.CounterMode = TIM_COUNTERMODE_UP;
 8002cbc:	e9c5 4702 	strd	r4, r7, [r5, #8]
  htim15.Init.RepetitionCounter = 0;
 8002cc0:	e9c5 4404 	strd	r4, r4, [r5, #16]
  htim15.Init.Prescaler = 48;
 8002cc4:	e9c5 2300 	strd	r2, r3, [r5]
  if (HAL_TIM_PWM_Init(&htim15) != HAL_OK)
 8002cc8:	f7fe fc5a 	bl	8001580 <HAL_TIM_PWM_Init>
 8002ccc:	b108      	cbz	r0, 8002cd2 <main+0x21a>
 8002cce:	b672      	cpsid	i
  while (1)
 8002cd0:	e7fe      	b.n	8002cd0 <main+0x218>
  sMasterConfig.MasterOutputTrigger = TIM_TRGO_RESET;
 8002cd2:	9005      	str	r0, [sp, #20]
  sMasterConfig.MasterSlaveMode = TIM_MASTERSLAVEMODE_DISABLE;
 8002cd4:	9007      	str	r0, [sp, #28]
  if (HAL_TIMEx_MasterConfigSynchronization(&htim15, &sMasterConfig) != HAL_OK)
 8002cd6:	a905      	add	r1, sp, #20
 8002cd8:	4628      	mov	r0, r5
 8002cda:	f7ff f801 	bl	8001ce0 <HAL_TIMEx_MasterConfigSynchronization>
 8002cde:	4602      	mov	r2, r0
 8002ce0:	b108      	cbz	r0, 8002ce6 <main+0x22e>
 8002ce2:	b672      	cpsid	i
  while (1)
 8002ce4:	e7fe      	b.n	8002ce4 <main+0x22c>
  sConfigOC.OCPolarity = TIM_OCPOLARITY_HIGH;
 8002ce6:	e9cd 0009 	strd	r0, r0, [sp, #36]	@ 0x24
  sConfigOC.OCFastMode = TIM_OCFAST_DISABLE;
 8002cea:	e9cd 000b 	strd	r0, r0, [sp, #44]	@ 0x2c
  sConfigOC.OCNIdleState = TIM_OCNIDLESTATE_RESET;
 8002cee:	e9cd 000d 	strd	r0, r0, [sp, #52]	@ 0x34
  sConfigOC.OCMode = TIM_OCMODE_PWM1;
 8002cf2:	2360      	movs	r3, #96	@ 0x60
  if (HAL_TIM_PWM_ConfigChannel(&htim15, &sConfigOC, TIM_CHANNEL_1) != HAL_OK)
 8002cf4:	a908      	add	r1, sp, #32
 8002cf6:	4628      	mov	r0, r5
  sConfigOC.OCMode = TIM_OCMODE_PWM1;
 8002cf8:	9308      	str	r3, [sp, #32]
  if (HAL_TIM_PWM_ConfigChannel(&htim15, &sConfigOC, TIM_CHANNEL_1) != HAL_OK)
 8002cfa:	f7fe fed3 	bl	8001aa4 <HAL_TIM_PWM_ConfigChannel>
 8002cfe:	b108      	cbz	r0, 8002d04 <main+0x24c>
 8002d00:	b672      	cpsid	i
  while (1)
 8002d02:	e7fe      	b.n	8002d02 <main+0x24a>
  if (HAL_TIM_PWM_ConfigChannel(&htim15, &sConfigOC, TIM_CHANNEL_2) != HAL_OK)
 8002d04:	4632      	mov	r2, r6
 8002d06:	a908      	add	r1, sp, #32
 8002d08:	4628      	mov	r0, r5
 8002d0a:	f7fe fecb 	bl	8001aa4 <HAL_TIM_PWM_ConfigChannel>
 8002d0e:	b108      	cbz	r0, 8002d14 <main+0x25c>
 8002d10:	b672      	cpsid	i
  while (1)
 8002d12:	e7fe      	b.n	8002d12 <main+0x25a>
  sBreakDeadTimeConfig.OffStateRunMode = TIM_OSSR_DISABLE;
 8002d14:	2300      	movs	r3, #0
  sBreakDeadTimeConfig.BreakPolarity = TIM_BREAKPOLARITY_HIGH;
 8002d16:	f44f 5200 	mov.w	r2, #8192	@ 0x2000
  if (HAL_TIMEx_ConfigBreakDeadTime(&htim15, &sBreakDeadTimeConfig) != HAL_OK)
 8002d1a:	4828      	ldr	r0, [pc, #160]	@ (8002dbc <main+0x304>)
  sBreakDeadTimeConfig.BreakFilter = 0;
 8002d1c:	9315      	str	r3, [sp, #84]	@ 0x54
  if (HAL_TIMEx_ConfigBreakDeadTime(&htim15, &sBreakDeadTimeConfig) != HAL_OK)
 8002d1e:	a90f      	add	r1, sp, #60	@ 0x3c
  sBreakDeadTimeConfig.OffStateIDLEMode = TIM_OSSI_DISABLE;
 8002d20:	e9cd 330f 	strd	r3, r3, [sp, #60]	@ 0x3c
  sBreakDeadTimeConfig.DeadTime = 0;
 8002d24:	e9cd 3311 	strd	r3, r3, [sp, #68]	@ 0x44
  sBreakDeadTimeConfig.BreakPolarity = TIM_BREAKPOLARITY_HIGH;
 8002d28:	e9cd 3213 	strd	r3, r2, [sp, #76]	@ 0x4c
  sBreakDeadTimeConfig.AutomaticOutput = TIM_AUTOMATICOUTPUT_DISABLE;
 8002d2c:	9319      	str	r3, [sp, #100]	@ 0x64
  if (HAL_TIMEx_ConfigBreakDeadTime(&htim15, &sBreakDeadTimeConfig) != HAL_OK)
 8002d2e:	f7ff f823 	bl	8001d78 <HAL_TIMEx_ConfigBreakDeadTime>
 8002d32:	4605      	mov	r5, r0
 8002d34:	b108      	cbz	r0, 8002d3a <main+0x282>
 8002d36:	b672      	cpsid	i
  while (1)
 8002d38:	e7fe      	b.n	8002d38 <main+0x280>
  huart4.Instance = UART4;
 8002d3a:	4c22      	ldr	r4, [pc, #136]	@ (8002dc4 <main+0x30c>)
  HAL_TIM_MspPostInit(&htim15);
 8002d3c:	481f      	ldr	r0, [pc, #124]	@ (8002dbc <main+0x304>)
 8002d3e:	f000 fadb 	bl	80032f8 <HAL_TIM_MspPostInit>
  huart4.Instance = UART4;
 8002d42:	4921      	ldr	r1, [pc, #132]	@ (8002dc8 <main+0x310>)
  huart4.Init.BaudRate = 9600;
 8002d44:	f44f 5216 	mov.w	r2, #9600	@ 0x2580
  huart4.Init.Mode = UART_MODE_TX_RX;
 8002d48:	230c      	movs	r3, #12
  if (HAL_UART_Init(&huart4) != HAL_OK)
 8002d4a:	4620      	mov	r0, r4
  huart4.Init.BaudRate = 9600;
 8002d4c:	e9c4 1200 	strd	r1, r2, [r4]
  huart4.Init.StopBits = UART_STOPBITS_1;
 8002d50:	e9c4 5502 	strd	r5, r5, [r4, #8]
  huart4.Init.Mode = UART_MODE_TX_RX;
 8002d54:	e9c4 5304 	strd	r5, r3, [r4, #16]
  huart4.Init.OverSampling = UART_OVERSAMPLING_16;
 8002d58:	e9c4 5506 	strd	r5, r5, [r4, #24]
  huart4.AdvancedInit.AdvFeatureInit = UART_ADVFEATURE_NO_INIT;
 8002d5c:	e9c4 5508 	strd	r5, r5, [r4, #32]
  if (HAL_UART_Init(&huart4) != HAL_OK)
 8002d60:	f7ff fcb6 	bl	80026d0 <HAL_UART_Init>
 8002d64:	4601      	mov	r1, r0
 8002d66:	b108      	cbz	r0, 8002d6c <main+0x2b4>
 8002d68:	b672      	cpsid	i
  while (1)
 8002d6a:	e7fe      	b.n	8002d6a <main+0x2b2>
  TIM15->BDTR |= TIM_BDTR_MOE;
 8002d6c:	4a14      	ldr	r2, [pc, #80]	@ (8002dc0 <main+0x308>)
  HAL_TIM_PWM_Stop_IT(&htim15, TIM_CHANNEL_1);    // останавливаем ШИМ по каналу 1
 8002d6e:	4813      	ldr	r0, [pc, #76]	@ (8002dbc <main+0x304>)
  TIM15->BDTR |= TIM_BDTR_MOE;
 8002d70:	6c53      	ldr	r3, [r2, #68]	@ 0x44
 8002d72:	f443 4300 	orr.w	r3, r3, #32768	@ 0x8000
 8002d76:	6453      	str	r3, [r2, #68]	@ 0x44
  HAL_TIM_PWM_Stop_IT(&htim15, TIM_CHANNEL_1);    // останавливаем ШИМ по каналу 1
 8002d78:	f7fe fd26 	bl	80017c8 <HAL_TIM_PWM_Stop_IT>
  HAL_TIM_PWM_Stop_IT(&htim15, TIM_CHANNEL_2);    // останавливаем ШИМ по каналу 2
 8002d7c:	2104      	movs	r1, #4
 8002d7e:	480f      	ldr	r0, [pc, #60]	@ (8002dbc <main+0x304>)
 8002d80:	f7fe fd22 	bl	80017c8 <HAL_TIM_PWM_Stop_IT>
  HAL_UART_Receive_IT(&huart4, &rx_buffer, 1); // включаем прерывания
 8002d84:	4911      	ldr	r1, [pc, #68]	@ (8002dcc <main+0x314>)
 8002d86:	2201      	movs	r2, #1
 8002d88:	4620      	mov	r0, r4
 8002d8a:	f7ff fe11 	bl	80029b0 <HAL_UART_Receive_IT>
  HAL_TIM_Base_Stop_IT(&htim15);				   // остановка таймера
 8002d8e:	480b      	ldr	r0, [pc, #44]	@ (8002dbc <main+0x304>)
 8002d90:	f7fe fbde 	bl	8001550 <HAL_TIM_Base_Stop_IT>
  while (1)
 8002d94:	e7fe      	b.n	8002d94 <main+0x2dc>
 8002d96:	bf00      	nop
 8002d98:	40021000 	.word	0x40021000
 8002d9c:	48001000 	.word	0x48001000
 8002da0:	48001400 	.word	0x48001400
 8002da4:	20000464 	.word	0x20000464
 8002da8:	40013000 	.word	0x40013000
 8002dac:	20000070 	.word	0x20000070
 8002db0:	40005c00 	.word	0x40005c00
 8002db4:	20000418 	.word	0x20000418
 8002db8:	40012c00 	.word	0x40012c00
 8002dbc:	200003cc 	.word	0x200003cc
 8002dc0:	40014000 	.word	0x40014000
 8002dc4:	20000344 	.word	0x20000344
 8002dc8:	40004c00 	.word	0x40004c00
 8002dcc:	20000058 	.word	0x20000058

08002dd0 <direction>:
	if(axis == X && dir == pos){
 8002dd0:	2801      	cmp	r0, #1
uint8_t direction(uint8_t axis /*0-x 1-y*/, uint8_t dir){
 8002dd2:	b538      	push	{r3, r4, r5, lr}
 8002dd4:	4604      	mov	r4, r0
 8002dd6:	460d      	mov	r5, r1
	if(axis == X && dir == pos){
 8002dd8:	d010      	beq.n	8002dfc <direction+0x2c>
	if(axis == Y && dir == pos){
 8002dda:	b968      	cbnz	r0, 8002df8 <direction+0x28>
 8002ddc:	b1f1      	cbz	r1, 8002e1c <direction+0x4c>
	if(axis == Y && dir == neg){
 8002dde:	2901      	cmp	r1, #1
 8002de0:	d10a      	bne.n	8002df8 <direction+0x28>
		HAL_GPIO_WritePin(DIR1_GPIO_Port, DIR1_Pin, GPIO_PIN_RESET);
 8002de2:	4602      	mov	r2, r0
 8002de4:	f04f 4090 	mov.w	r0, #1207959552	@ 0x48000000
 8002de8:	f7fd fca6 	bl	8000738 <HAL_GPIO_WritePin>
		HAL_GPIO_WritePin(DIR2_GPIO_Port, DIR2_Pin, GPIO_PIN_SET);
 8002dec:	462a      	mov	r2, r5
 8002dee:	2102      	movs	r1, #2
 8002df0:	f04f 4090 	mov.w	r0, #1207959552	@ 0x48000000
 8002df4:	f7fd fca0 	bl	8000738 <HAL_GPIO_WritePin>
}
 8002df8:	2001      	movs	r0, #1
 8002dfa:	bd38      	pop	{r3, r4, r5, pc}
	if(axis == X && dir == pos){
 8002dfc:	b189      	cbz	r1, 8002e22 <direction+0x52>
	if(axis == X && dir == neg){
 8002dfe:	2901      	cmp	r1, #1
 8002e00:	d1fa      	bne.n	8002df8 <direction+0x28>
		HAL_GPIO_WritePin(DIR1_GPIO_Port, DIR1_Pin, GPIO_PIN_RESET);
 8002e02:	2200      	movs	r2, #0
 8002e04:	f04f 4090 	mov.w	r0, #1207959552	@ 0x48000000
 8002e08:	f7fd fc96 	bl	8000738 <HAL_GPIO_WritePin>
		HAL_GPIO_WritePin(DIR2_GPIO_Port, DIR2_Pin, GPIO_PIN_RESET);
 8002e0c:	2200      	movs	r2, #0
 8002e0e:	2102      	movs	r1, #2
 8002e10:	f04f 4090 	mov.w	r0, #1207959552	@ 0x48000000
 8002e14:	f7fd fc90 	bl	8000738 <HAL_GPIO_WritePin>
}
 8002e18:	2001      	movs	r0, #1
 8002e1a:	bd38      	pop	{r3, r4, r5, pc}
		HAL_GPIO_WritePin(DIR1_GPIO_Port, DIR1_Pin, GPIO_PIN_SET);
 8002e1c:	2201      	movs	r2, #1
 8002e1e:	4611      	mov	r1, r2
 8002e20:	e7f0      	b.n	8002e04 <direction+0x34>
		HAL_GPIO_WritePin(DIR1_GPIO_Port, DIR1_Pin, GPIO_PIN_SET);
 8002e22:	4602      	mov	r2, r0
 8002e24:	4601      	mov	r1, r0
 8002e26:	f04f 4090 	mov.w	r0, #1207959552	@ 0x48000000
 8002e2a:	f7fd fc85 	bl	8000738 <HAL_GPIO_WritePin>
		HAL_GPIO_WritePin(DIR2_GPIO_Port, DIR2_Pin, GPIO_PIN_SET);
 8002e2e:	4622      	mov	r2, r4
 8002e30:	2102      	movs	r1, #2
 8002e32:	f04f 4090 	mov.w	r0, #1207959552	@ 0x48000000
 8002e36:	f7fd fc7f 	bl	8000738 <HAL_GPIO_WritePin>
}
 8002e3a:	2001      	movs	r0, #1
 8002e3c:	bd38      	pop	{r3, r4, r5, pc}
 8002e3e:	bf00      	nop

08002e40 <CRC16_calc>:
    for (size_t i = 0; i < length; i++) {
 8002e40:	2900      	cmp	r1, #0
 8002e42:	d03e      	beq.n	8002ec2 <CRC16_calc+0x82>
 8002e44:	f100 3cff 	add.w	ip, r0, #4294967295
uint16_t CRC16_calc(uint8_t* data, size_t length) {
 8002e48:	b500      	push	{lr}
 8002e4a:	468e      	mov	lr, r1
            if (crc & 0x0001) {
 8002e4c:	491e      	ldr	r1, [pc, #120]	@ (8002ec8 <CRC16_calc+0x88>)
 8002e4e:	44e6      	add	lr, ip
    uint16_t crc = 0xFFFF; // Начальное значение (может быть 0xFFFF)
 8002e50:	f64f 70ff 	movw	r0, #65535	@ 0xffff
        crc ^= (uint16_t)data[i];
 8002e54:	f81c 3f01 	ldrb.w	r3, [ip, #1]!
 8002e58:	4058      	eors	r0, r3
            if (crc & 0x0001) {
 8002e5a:	f340 0300 	sbfx	r3, r0, #0, #1
 8002e5e:	400b      	ands	r3, r1
 8002e60:	ea83 0350 	eor.w	r3, r3, r0, lsr #1
 8002e64:	f343 0200 	sbfx	r2, r3, #0, #1
 8002e68:	400a      	ands	r2, r1
                crc >>= 1;
 8002e6a:	f3c3 034e 	ubfx	r3, r3, #1, #15
            if (crc & 0x0001) {
 8002e6e:	405a      	eors	r2, r3
 8002e70:	f342 0300 	sbfx	r3, r2, #0, #1
 8002e74:	400b      	ands	r3, r1
                crc >>= 1;
 8002e76:	f3c2 024e 	ubfx	r2, r2, #1, #15
            if (crc & 0x0001) {
 8002e7a:	4053      	eors	r3, r2
 8002e7c:	f343 0200 	sbfx	r2, r3, #0, #1
 8002e80:	400a      	ands	r2, r1
                crc >>= 1;
 8002e82:	f3c3 034e 	ubfx	r3, r3, #1, #15
            if (crc & 0x0001) {
 8002e86:	405a      	eors	r2, r3
 8002e88:	f342 0300 	sbfx	r3, r2, #0, #1
 8002e8c:	400b      	ands	r3, r1
                crc >>= 1;
 8002e8e:	f3c2 024e 	ubfx	r2, r2, #1, #15
            if (crc & 0x0001) {
 8002e92:	4053      	eors	r3, r2
 8002e94:	f343 0200 	sbfx	r2, r3, #0, #1
 8002e98:	400a      	ands	r2, r1
                crc >>= 1;
 8002e9a:	f3c3 034e 	ubfx	r3, r3, #1, #15
            if (crc & 0x0001) {
 8002e9e:	405a      	eors	r2, r3
 8002ea0:	f342 0300 	sbfx	r3, r2, #0, #1
 8002ea4:	400b      	ands	r3, r1
                crc >>= 1;
 8002ea6:	f3c2 024e 	ubfx	r2, r2, #1, #15
            if (crc & 0x0001) {
 8002eaa:	4053      	eors	r3, r2
 8002eac:	f343 0000 	sbfx	r0, r3, #0, #1
 8002eb0:	4008      	ands	r0, r1
                crc >>= 1;
 8002eb2:	f3c3 034e 	ubfx	r3, r3, #1, #15
            if (crc & 0x0001) {
 8002eb6:	4058      	eors	r0, r3
    for (size_t i = 0; i < length; i++) {
 8002eb8:	45f4      	cmp	ip, lr
            if (crc & 0x0001) {
 8002eba:	b280      	uxth	r0, r0
    for (size_t i = 0; i < length; i++) {
 8002ebc:	d1ca      	bne.n	8002e54 <CRC16_calc+0x14>
}
 8002ebe:	f85d fb04 	ldr.w	pc, [sp], #4
    uint16_t crc = 0xFFFF; // Начальное значение (может быть 0xFFFF)
 8002ec2:	f64f 70ff 	movw	r0, #65535	@ 0xffff
}
 8002ec6:	4770      	bx	lr
 8002ec8:	ffffa001 	.word	0xffffa001

08002ecc <DataRecive>:
	structure->frame[structure->ccnt] = symbol;
 8002ecc:	7803      	ldrb	r3, [r0, #0]
 8002ece:	18c2      	adds	r2, r0, r3
 8002ed0:	72d1      	strb	r1, [r2, #11]
	if (structure->ccnt == 0){
 8002ed2:	b923      	cbnz	r3, 8002ede <DataRecive+0x12>
		structure->dev_addr = symbol;
 8002ed4:	7041      	strb	r1, [r0, #1]
	structure->ccnt++;
 8002ed6:	3301      	adds	r3, #1
 8002ed8:	7003      	strb	r3, [r0, #0]
}
 8002eda:	2001      	movs	r0, #1
 8002edc:	4770      	bx	lr
	if (structure -> ccnt == 1){
 8002ede:	2b01      	cmp	r3, #1
 8002ee0:	d101      	bne.n	8002ee6 <DataRecive+0x1a>
		structure->cmd[0] = symbol;
 8002ee2:	7081      	strb	r1, [r0, #2]
	if (structure -> ccnt == 8){
 8002ee4:	e7f7      	b.n	8002ed6 <DataRecive+0xa>
	if (structure -> ccnt == 2){
 8002ee6:	2b02      	cmp	r3, #2
 8002ee8:	d101      	bne.n	8002eee <DataRecive+0x22>
		structure->cmd[1] = symbol;
 8002eea:	70c1      	strb	r1, [r0, #3]
	if (structure -> ccnt == 8){
 8002eec:	e7f3      	b.n	8002ed6 <DataRecive+0xa>
	if (structure -> ccnt == 3){
 8002eee:	2b03      	cmp	r3, #3
 8002ef0:	d008      	beq.n	8002f04 <DataRecive+0x38>
	if (structure -> ccnt == 4){
 8002ef2:	2b04      	cmp	r3, #4
 8002ef4:	d008      	beq.n	8002f08 <DataRecive+0x3c>
	if (structure -> ccnt == 5){
 8002ef6:	2b05      	cmp	r3, #5
 8002ef8:	d10a      	bne.n	8002f10 <DataRecive+0x44>
	structure->ccnt++;
 8002efa:	2306      	movs	r3, #6
		structure-> value[0] = symbol;
 8002efc:	7181      	strb	r1, [r0, #6]
	structure->ccnt++;
 8002efe:	7003      	strb	r3, [r0, #0]
}
 8002f00:	2001      	movs	r0, #1
 8002f02:	4770      	bx	lr
		structure-> reg[0] = symbol;
 8002f04:	7101      	strb	r1, [r0, #4]
	if (structure -> ccnt == 8){
 8002f06:	e7e6      	b.n	8002ed6 <DataRecive+0xa>
	structure->ccnt++;
 8002f08:	2305      	movs	r3, #5
		structure-> reg[1] = symbol;
 8002f0a:	7141      	strb	r1, [r0, #5]
	structure->ccnt++;
 8002f0c:	7003      	strb	r3, [r0, #0]
	if(structure->ccnt == 9) {
 8002f0e:	e7e4      	b.n	8002eda <DataRecive+0xe>
	if (structure -> ccnt == 6){
 8002f10:	2b06      	cmp	r3, #6
 8002f12:	d00a      	beq.n	8002f2a <DataRecive+0x5e>
	if (structure -> ccnt == 7){
 8002f14:	2b07      	cmp	r3, #7
 8002f16:	d00c      	beq.n	8002f32 <DataRecive+0x66>
	if (structure -> ccnt == 8){
 8002f18:	2b08      	cmp	r3, #8
 8002f1a:	d1dc      	bne.n	8002ed6 <DataRecive+0xa>
		structure->ccnt = 0;
 8002f1c:	2200      	movs	r2, #0
		structure->data_update = 1;
 8002f1e:	2301      	movs	r3, #1
		structure-> CRC16[1] = symbol;
 8002f20:	7241      	strb	r1, [r0, #9]
		structure->ccnt = 0;
 8002f22:	7002      	strb	r2, [r0, #0]
		structure->data_update = 1;
 8002f24:	7283      	strb	r3, [r0, #10]
}
 8002f26:	2001      	movs	r0, #1
 8002f28:	4770      	bx	lr
	structure->ccnt++;
 8002f2a:	2307      	movs	r3, #7
		structure-> value[1] = symbol;
 8002f2c:	71c1      	strb	r1, [r0, #7]
	structure->ccnt++;
 8002f2e:	7003      	strb	r3, [r0, #0]
	if(structure->ccnt == 9) {
 8002f30:	e7d3      	b.n	8002eda <DataRecive+0xe>
	structure->ccnt++;
 8002f32:	2308      	movs	r3, #8
		structure-> CRC16[0] = symbol;
 8002f34:	7201      	strb	r1, [r0, #8]
	structure->ccnt++;
 8002f36:	7003      	strb	r3, [r0, #0]
	if(structure->ccnt == 9) {
 8002f38:	e7cf      	b.n	8002eda <DataRecive+0xe>
 8002f3a:	bf00      	nop

08002f3c <proceed>:
	if(RS485_structure->dev_addr == 52){
 8002f3c:	784b      	ldrb	r3, [r1, #1]
 8002f3e:	2b34      	cmp	r3, #52	@ 0x34
 8002f40:	d001      	beq.n	8002f46 <proceed+0xa>
}
 8002f42:	2001      	movs	r0, #1
 8002f44:	4770      	bx	lr
uint8_t proceed(station * station_structure, cmd_uart * RS485_structure){
 8002f46:	b570      	push	{r4, r5, r6, lr}
		if(RS485_structure ->cmd[0] == 0){ //проверяем первый 0
 8002f48:	788b      	ldrb	r3, [r1, #2]
 8002f4a:	460c      	mov	r4, r1
 8002f4c:	bb1b      	cbnz	r3, 8002f96 <proceed+0x5a>
			if(RS485_structure ->cmd[1] == 1){ //запись
 8002f4e:	78cb      	ldrb	r3, [r1, #3]
 8002f50:	2b01      	cmp	r3, #1
 8002f52:	4605      	mov	r5, r0
 8002f54:	d021      	beq.n	8002f9a <proceed+0x5e>
			if(RS485_structure ->cmd[1] == 4){
 8002f56:	2b04      	cmp	r3, #4
 8002f58:	d11d      	bne.n	8002f96 <proceed+0x5a>
				if(RS485_structure->reg[0] == 0){
 8002f5a:	7923      	ldrb	r3, [r4, #4]
 8002f5c:	b99b      	cbnz	r3, 8002f86 <proceed+0x4a>
					switch(RS485_structure->reg[1]){
 8002f5e:	7963      	ldrb	r3, [r4, #5]
 8002f60:	3b01      	subs	r3, #1
 8002f62:	2b07      	cmp	r3, #7
 8002f64:	d80f      	bhi.n	8002f86 <proceed+0x4a>
 8002f66:	e8df f003 	tbb	[pc, r3]
 8002f6a:	043e      	.short	0x043e
 8002f6c:	484b583b 	.word	0x484b583b
 8002f70:	403b      	.short	0x403b
						RS485_structure->frame[5]  =  station_structure->time_acs/100;
 8002f72:	886a      	ldrh	r2, [r5, #2]
						RS485_structure->frame[5]  =  station_structure->coordinate/100;
 8002f74:	4b8c      	ldr	r3, [pc, #560]	@ (80031a8 <proceed+0x26c>)
 8002f76:	fba3 0302 	umull	r0, r3, r3, r2
 8002f7a:	095b      	lsrs	r3, r3, #5
						RS485_structure->frame[6]  =  station_structure->coordinate%100;
 8002f7c:	2164      	movs	r1, #100	@ 0x64
 8002f7e:	fb01 2213 	mls	r2, r1, r3, r2
						RS485_structure->frame[5]  =  station_structure->coordinate/100;
 8002f82:	7423      	strb	r3, [r4, #16]
						RS485_structure->frame[6]  =  station_structure->coordinate%100;
 8002f84:	7462      	strb	r2, [r4, #17]
				HAL_UART_Transmit(&huart4, RS485_structure->frame, 9, HAL_MAX_DELAY);
 8002f86:	4889      	ldr	r0, [pc, #548]	@ (80031ac <proceed+0x270>)
 8002f88:	f04f 33ff 	mov.w	r3, #4294967295
 8002f8c:	2209      	movs	r2, #9
 8002f8e:	f104 010b 	add.w	r1, r4, #11
 8002f92:	f7fe ff3d 	bl	8001e10 <HAL_UART_Transmit>
}
 8002f96:	2001      	movs	r0, #1
 8002f98:	bd70      	pop	{r4, r5, r6, pc}
				if(RS485_structure->reg[0] == 0){ //проверяем, что первый 0 в адресе регистра
 8002f9a:	790b      	ldrb	r3, [r1, #4]
 8002f9c:	b1b3      	cbz	r3, 8002fcc <proceed+0x90>
				if(RS485_structure->reg[0] == 1){ //проверяем, что первый 1 в адресе регистра
 8002f9e:	2b01      	cmp	r3, #1
 8002fa0:	d1f9      	bne.n	8002f96 <proceed+0x5a>
					switch(RS485_structure->reg[1]){
 8002fa2:	7963      	ldrb	r3, [r4, #5]
 8002fa4:	b94b      	cbnz	r3, 8002fba <proceed+0x7e>
						station_structure->coordinate = RS485_TRANSMITTER.value[1] + (RS485_TRANSMITTER.value[0] * 100);
 8002fa6:	4a82      	ldr	r2, [pc, #520]	@ (80031b0 <proceed+0x274>)
 8002fa8:	7993      	ldrb	r3, [r2, #6]
 8002faa:	79d2      	ldrb	r2, [r2, #7]
 8002fac:	eb03 0383 	add.w	r3, r3, r3, lsl #2
 8002fb0:	eb03 0383 	add.w	r3, r3, r3, lsl #2
 8002fb4:	eb02 0383 	add.w	r3, r2, r3, lsl #2
 8002fb8:	80ab      	strh	r3, [r5, #4]
					HAL_UART_Transmit(&huart4, RS485_TRANSMITTER.frame, 9, HAL_MAX_DELAY);
 8002fba:	497e      	ldr	r1, [pc, #504]	@ (80031b4 <proceed+0x278>)
 8002fbc:	487b      	ldr	r0, [pc, #492]	@ (80031ac <proceed+0x270>)
 8002fbe:	f04f 33ff 	mov.w	r3, #4294967295
 8002fc2:	2209      	movs	r2, #9
 8002fc4:	f7fe ff24 	bl	8001e10 <HAL_UART_Transmit>
			if(RS485_structure ->cmd[1] == 4){
 8002fc8:	78e3      	ldrb	r3, [r4, #3]
 8002fca:	e7c4      	b.n	8002f56 <proceed+0x1a>
					switch(RS485_structure->reg[1]){
 8002fcc:	794b      	ldrb	r3, [r1, #5]
 8002fce:	2b09      	cmp	r3, #9
 8002fd0:	d82f      	bhi.n	8003032 <proceed+0xf6>
 8002fd2:	e8df f003 	tbb	[pc, r3]
 8002fd6:	7f74      	.short	0x7f74
 8002fd8:	a48a9c69 	.word	0xa48a9c69
 8002fdc:	24394458 	.word	0x24394458
						RS485_structure->frame[5]  =  station_structure->axis;
 8002fe0:	88eb      	ldrh	r3, [r5, #6]
 8002fe2:	8223      	strh	r3, [r4, #16]
					break;
 8002fe4:	e7cf      	b.n	8002f86 <proceed+0x4a>
						RS485_structure->frame[5]  = station_structure->velocity/100;
 8002fe6:	882a      	ldrh	r2, [r5, #0]
 8002fe8:	e7c4      	b.n	8002f74 <proceed+0x38>
						RS485_structure->frame[6]  = TIM15->CR1 & TIM_CR1_CEN;
 8002fea:	4b73      	ldr	r3, [pc, #460]	@ (80031b8 <proceed+0x27c>)
						RS485_structure->frame[5]  = 0;
 8002fec:	2200      	movs	r2, #0
 8002fee:	7422      	strb	r2, [r4, #16]
						RS485_structure->frame[6]  = TIM15->CR1 & TIM_CR1_CEN;
 8002ff0:	681b      	ldr	r3, [r3, #0]
 8002ff2:	f003 0301 	and.w	r3, r3, #1
 8002ff6:	7463      	strb	r3, [r4, #17]
					break;
 8002ff8:	e7c5      	b.n	8002f86 <proceed+0x4a>
						RS485_structure->frame[5]  =  station_structure->x_home;;
 8002ffa:	896b      	ldrh	r3, [r5, #10]
 8002ffc:	8223      	strh	r3, [r4, #16]
					break;
 8002ffe:	e7c2      	b.n	8002f86 <proceed+0x4a>
						RS485_structure->frame[5] = 0;
 8003000:	2500      	movs	r5, #0
 8003002:	7425      	strb	r5, [r4, #16]
						if(HAL_GPIO_ReadPin(GPIOA, GPIO_PIN_10) == GPIO_PIN_SET){
 8003004:	f44f 6180 	mov.w	r1, #1024	@ 0x400
 8003008:	f04f 4090 	mov.w	r0, #1207959552	@ 0x48000000
 800300c:	f7fd fb8e 	bl	800072c <HAL_GPIO_ReadPin>
							RS485_structure->frame[6] = 1;
 8003010:	2801      	cmp	r0, #1
 8003012:	bf08      	it	eq
 8003014:	4605      	moveq	r5, r0
 8003016:	7465      	strb	r5, [r4, #17]
 8003018:	e7b5      	b.n	8002f86 <proceed+0x4a>
						RS485_structure->frame[5]  =  station_structure->coordinate/100;
 800301a:	88aa      	ldrh	r2, [r5, #4]
 800301c:	e7aa      	b.n	8002f74 <proceed+0x38>
						station_structure->width = RS485_TRANSMITTER.value[1] + (RS485_TRANSMITTER.value[0] * 100);
 800301e:	4a64      	ldr	r2, [pc, #400]	@ (80031b0 <proceed+0x274>)
 8003020:	7993      	ldrb	r3, [r2, #6]
 8003022:	79d2      	ldrb	r2, [r2, #7]
 8003024:	eb03 0383 	add.w	r3, r3, r3, lsl #2
 8003028:	eb03 0383 	add.w	r3, r3, r3, lsl #2
 800302c:	eb02 0383 	add.w	r3, r2, r3, lsl #2
 8003030:	8203      	strh	r3, [r0, #16]
					HAL_UART_Transmit(&huart4, RS485_TRANSMITTER.frame, 9, HAL_MAX_DELAY);
 8003032:	f04f 33ff 	mov.w	r3, #4294967295
 8003036:	495f      	ldr	r1, [pc, #380]	@ (80031b4 <proceed+0x278>)
 8003038:	485c      	ldr	r0, [pc, #368]	@ (80031ac <proceed+0x270>)
 800303a:	2209      	movs	r2, #9
 800303c:	f7fe fee8 	bl	8001e10 <HAL_UART_Transmit>
				if(RS485_structure->reg[0] == 1){ //проверяем, что первый 1 в адресе регистра
 8003040:	7923      	ldrb	r3, [r4, #4]
 8003042:	2b01      	cmp	r3, #1
 8003044:	d1c0      	bne.n	8002fc8 <proceed+0x8c>
 8003046:	e7ac      	b.n	8002fa2 <proceed+0x66>
						station_structure->height = RS485_TRANSMITTER.value[1] + (RS485_TRANSMITTER.value[0] * 100);
 8003048:	4a59      	ldr	r2, [pc, #356]	@ (80031b0 <proceed+0x274>)
 800304a:	7993      	ldrb	r3, [r2, #6]
 800304c:	79d2      	ldrb	r2, [r2, #7]
 800304e:	eb03 0383 	add.w	r3, r3, r3, lsl #2
 8003052:	eb03 0383 	add.w	r3, r3, r3, lsl #2
 8003056:	eb02 0383 	add.w	r3, r2, r3, lsl #2
 800305a:	81c3      	strh	r3, [r0, #14]
						break;
 800305c:	e7e9      	b.n	8003032 <proceed+0xf6>
					    step_counter = 0;
 800305e:	4957      	ldr	r1, [pc, #348]	@ (80031bc <proceed+0x280>)
					    if(RS485_structure->value[1] == 0){
 8003060:	79e3      	ldrb	r3, [r4, #7]
					    step_counter = 0;
 8003062:	2200      	movs	r2, #0
 8003064:	600a      	str	r2, [r1, #0]
					    if(RS485_structure->value[1] == 0){
 8003066:	2b00      	cmp	r3, #0
 8003068:	d168      	bne.n	800313c <proceed+0x200>
					    	station_structure->status = 1;//движение с ускорением
 800306a:	2301      	movs	r3, #1
 800306c:	8103      	strh	r3, [r0, #8]
						HAL_TIM_PWM_Start_IT(&htim15, TIM_CHANNEL_1);    // останавливаем ШИМ по каналу 1
 800306e:	4854      	ldr	r0, [pc, #336]	@ (80031c0 <proceed+0x284>)
 8003070:	2100      	movs	r1, #0
						HAL_TIM_PWM_Start_IT(&htim15, TIM_CHANNEL_1);    // зайпускаем ШИМ по каналу 1
 8003072:	f7fe fb03 	bl	800167c <HAL_TIM_PWM_Start_IT>
						HAL_TIM_PWM_Start_IT(&htim15, TIM_CHANNEL_2);    // зайпускаем ШИМ по каналу 2
 8003076:	2104      	movs	r1, #4
 8003078:	4851      	ldr	r0, [pc, #324]	@ (80031c0 <proceed+0x284>)
 800307a:	f7fe faff 	bl	800167c <HAL_TIM_PWM_Start_IT>
						HAL_TIM_Base_Start_IT(&htim15);				  // Запускаем таймер
 800307e:	4850      	ldr	r0, [pc, #320]	@ (80031c0 <proceed+0x284>)
 8003080:	f7fe fa2e 	bl	80014e0 <HAL_TIM_Base_Start_IT>
						break;
 8003084:	e7d5      	b.n	8003032 <proceed+0xf6>
						HAL_TIM_PWM_Stop_IT(&htim15, TIM_CHANNEL_1);    // зайпускаем ШИМ по каналу 1
 8003086:	2100      	movs	r1, #0
 8003088:	484d      	ldr	r0, [pc, #308]	@ (80031c0 <proceed+0x284>)
 800308a:	f7fe fb9d 	bl	80017c8 <HAL_TIM_PWM_Stop_IT>
						HAL_TIM_PWM_Stop_IT(&htim15, TIM_CHANNEL_2);    // зайпускаем ШИМ по каналу 2
 800308e:	2104      	movs	r1, #4
 8003090:	484b      	ldr	r0, [pc, #300]	@ (80031c0 <proceed+0x284>)
 8003092:	f7fe fb99 	bl	80017c8 <HAL_TIM_PWM_Stop_IT>
						HAL_TIM_Base_Stop_IT(&htim15);
 8003096:	484a      	ldr	r0, [pc, #296]	@ (80031c0 <proceed+0x284>)
 8003098:	f7fe fa5a 	bl	8001550 <HAL_TIM_Base_Stop_IT>
						step_counter = 0;
 800309c:	4947      	ldr	r1, [pc, #284]	@ (80031bc <proceed+0x280>)
						station_struct.status = 0;
 800309e:	4a49      	ldr	r2, [pc, #292]	@ (80031c4 <proceed+0x288>)
						step_counter = 0;
 80030a0:	2300      	movs	r3, #0
 80030a2:	600b      	str	r3, [r1, #0]
						station_struct.status = 0;
 80030a4:	8113      	strh	r3, [r2, #8]
						break;
 80030a6:	e7c4      	b.n	8003032 <proceed+0xf6>
						station_structure->time_acs = RS485_TRANSMITTER.value[1] + (RS485_TRANSMITTER.value[0] * 100);
 80030a8:	4a41      	ldr	r2, [pc, #260]	@ (80031b0 <proceed+0x274>)
 80030aa:	7993      	ldrb	r3, [r2, #6]
 80030ac:	79d2      	ldrb	r2, [r2, #7]
 80030ae:	eb03 0383 	add.w	r3, r3, r3, lsl #2
 80030b2:	eb03 0383 	add.w	r3, r3, r3, lsl #2
 80030b6:	eb02 0383 	add.w	r3, r2, r3, lsl #2
 80030ba:	8043      	strh	r3, [r0, #2]
						break;
 80030bc:	e7b9      	b.n	8003032 <proceed+0xf6>
						station_structure->repetition = RS485_TRANSMITTER.value[1] + (RS485_TRANSMITTER.value[0] * 100);
 80030be:	4a3c      	ldr	r2, [pc, #240]	@ (80031b0 <proceed+0x274>)
 80030c0:	7993      	ldrb	r3, [r2, #6]
 80030c2:	79d2      	ldrb	r2, [r2, #7]
 80030c4:	eb03 0383 	add.w	r3, r3, r3, lsl #2
 80030c8:	eb03 0383 	add.w	r3, r3, r3, lsl #2
 80030cc:	eb02 0383 	add.w	r3, r2, r3, lsl #2
 80030d0:	7483      	strb	r3, [r0, #18]
						break;
 80030d2:	e7ae      	b.n	8003032 <proceed+0xf6>
						station_structure->velocity = RS485_TRANSMITTER.value[1] + (RS485_TRANSMITTER.value[0] * 100);
 80030d4:	4a36      	ldr	r2, [pc, #216]	@ (80031b0 <proceed+0x274>)
 80030d6:	7993      	ldrb	r3, [r2, #6]
 80030d8:	79d2      	ldrb	r2, [r2, #7]
 80030da:	eb03 0383 	add.w	r3, r3, r3, lsl #2
 80030de:	eb03 0383 	add.w	r3, r3, r3, lsl #2
 80030e2:	eb02 0383 	add.w	r3, r2, r3, lsl #2
 80030e6:	8003      	strh	r3, [r0, #0]
						break;
 80030e8:	e7a3      	b.n	8003032 <proceed+0xf6>
						step_counter = 0;
 80030ea:	4a34      	ldr	r2, [pc, #208]	@ (80031bc <proceed+0x280>)
						TIM15 -> ARR  = 5000;
 80030ec:	4b32      	ldr	r3, [pc, #200]	@ (80031b8 <proceed+0x27c>)
						step_counter = 0;
 80030ee:	2100      	movs	r1, #0
 80030f0:	6011      	str	r1, [r2, #0]
						TIM15 -> ARR  = 5000;
 80030f2:	f241 3288 	movw	r2, #5000	@ 0x1388
 80030f6:	62da      	str	r2, [r3, #44]	@ 0x2c
						TIM15 -> CCR1 = 2500;
 80030f8:	f640 12c4 	movw	r2, #2500	@ 0x9c4
 80030fc:	635a      	str	r2, [r3, #52]	@ 0x34
						TIM15 -> CCR2 = 2500;
 80030fe:	639a      	str	r2, [r3, #56]	@ 0x38
						dist_x = 0;
 8003100:	4b31      	ldr	r3, [pc, #196]	@ (80031c8 <proceed+0x28c>)
						station_structure-> x_home = 0;
 8003102:	7281      	strb	r1, [r0, #10]
						station_structure->status = 2;
 8003104:	2202      	movs	r2, #2
						station_structure->status = 3;
 8003106:	812a      	strh	r2, [r5, #8]
						HAL_TIM_PWM_Start_IT(&htim15, TIM_CHANNEL_1);    // зайпускаем ШИМ по каналу 1
 8003108:	482d      	ldr	r0, [pc, #180]	@ (80031c0 <proceed+0x284>)
						dist_y = 0;
 800310a:	7019      	strb	r1, [r3, #0]
						HAL_TIM_PWM_Start_IT(&htim15, TIM_CHANNEL_1);    // зайпускаем ШИМ по каналу 1
 800310c:	e7b1      	b.n	8003072 <proceed+0x136>
						station_structure->axis = (RS485_TRANSMITTER.value[1]);
 800310e:	4b28      	ldr	r3, [pc, #160]	@ (80031b0 <proceed+0x274>)
 8003110:	79d8      	ldrb	r0, [r3, #7]
 8003112:	71a8      	strb	r0, [r5, #6]
						station_structure->dir = (RS485_TRANSMITTER.value[0]);
 8003114:	7999      	ldrb	r1, [r3, #6]
 8003116:	71e9      	strb	r1, [r5, #7]
						direction(station_structure->axis, station_structure->dir);
 8003118:	f7ff fe5a 	bl	8002dd0 <direction>
						break;
 800311c:	e789      	b.n	8003032 <proceed+0xf6>
						step_counter = 0;
 800311e:	4a27      	ldr	r2, [pc, #156]	@ (80031bc <proceed+0x280>)
						TIM15 -> ARR  = 5000;
 8003120:	4b25      	ldr	r3, [pc, #148]	@ (80031b8 <proceed+0x27c>)
						step_counter = 0;
 8003122:	2100      	movs	r1, #0
 8003124:	6011      	str	r1, [r2, #0]
						TIM15 -> ARR  = 5000;
 8003126:	f241 3288 	movw	r2, #5000	@ 0x1388
 800312a:	62da      	str	r2, [r3, #44]	@ 0x2c
						TIM15 -> CCR1 = 2500;
 800312c:	f640 12c4 	movw	r2, #2500	@ 0x9c4
 8003130:	635a      	str	r2, [r3, #52]	@ 0x34
						TIM15 -> CCR2 = 2500;
 8003132:	639a      	str	r2, [r3, #56]	@ 0x38
						dist_y = 0;
 8003134:	4b25      	ldr	r3, [pc, #148]	@ (80031cc <proceed+0x290>)
						station_structure-> y_home = 0;
 8003136:	72c1      	strb	r1, [r0, #11]
						station_structure->status = 3;
 8003138:	2203      	movs	r2, #3
 800313a:	e7e4      	b.n	8003106 <proceed+0x1ca>
					    if(RS485_structure->value[1] == 1){
 800313c:	2b01      	cmp	r3, #1
 800313e:	d10a      	bne.n	8003156 <proceed+0x21a>
					    	TIM15 -> ARR = 5000;
 8003140:	4b1d      	ldr	r3, [pc, #116]	@ (80031b8 <proceed+0x27c>)
 8003142:	f241 3188 	movw	r1, #5000	@ 0x1388
 8003146:	62d9      	str	r1, [r3, #44]	@ 0x2c
							TIM15 -> CCR1 = 2500;
 8003148:	f640 12c4 	movw	r2, #2500	@ 0x9c4
					    	station_structure->status = 4; //перемещение до кооридинаты
 800314c:	2104      	movs	r1, #4
							TIM15 -> CCR1 = 2500;
 800314e:	635a      	str	r2, [r3, #52]	@ 0x34
							TIM15 -> CCR2 = 2500;
 8003150:	639a      	str	r2, [r3, #56]	@ 0x38
					    	station_structure->status = 4; //перемещение до кооридинаты
 8003152:	8101      	strh	r1, [r0, #8]
					    if(RS485_structure->value[1] == 2){
 8003154:	e78b      	b.n	800306e <proceed+0x132>
 8003156:	2b02      	cmp	r3, #2
 8003158:	d189      	bne.n	800306e <proceed+0x132>
							station_structure->external_progress = 0;
 800315a:	f8a0 2013 	strh.w	r2, [r0, #19]
							SP = 1000000/station_structure->velocity;//частота инкреммента / скорость
 800315e:	4a1c      	ldr	r2, [pc, #112]	@ (80031d0 <proceed+0x294>)
 8003160:	8801      	ldrh	r1, [r0, #0]
 8003162:	4b1c      	ldr	r3, [pc, #112]	@ (80031d4 <proceed+0x298>)
 8003164:	fbb3 f3f1 	udiv	r3, r3, r1
 8003168:	8013      	strh	r3, [r2, #0]
							acs_dist = (station_structure->velocity*station_structure->time_acs)/2000; /* трапецивидный профиль /‾\ => получим на ускорении прямоугольный ипеугольник, тогда v*tacs/2 */
 800316a:	8842      	ldrh	r2, [r0, #2]
							StartSpeed_count = 5000;
 800316c:	4e1a      	ldr	r6, [pc, #104]	@ (80031d8 <proceed+0x29c>)
							acs_dist = (station_structure->velocity*station_structure->time_acs)/2000; /* трапецивидный профиль /‾\ => получим на ускорении прямоугольный ипеугольник, тогда v*tacs/2 */
 800316e:	fb01 f202 	mul.w	r2, r1, r2
 8003172:	f44f 61fa 	mov.w	r1, #2000	@ 0x7d0
 8003176:	fbb2 f2f1 	udiv	r2, r2, r1
 800317a:	4918      	ldr	r1, [pc, #96]	@ (80031dc <proceed+0x2a0>)
							StartSpeed_count = 5000;
 800317c:	f241 3088 	movw	r0, #5000	@ 0x1388
							Delta_count = (StartSpeed_count - SP)/acs_dist + 1;
 8003180:	b29b      	uxth	r3, r3
							acs_dist = (station_structure->velocity*station_structure->time_acs)/2000; /* трапецивидный профиль /‾\ => получим на ускорении прямоугольный ипеугольник, тогда v*tacs/2 */
 8003182:	800a      	strh	r2, [r1, #0]
							Delta_count = (StartSpeed_count - SP)/acs_dist + 1;
 8003184:	1ac3      	subs	r3, r0, r3
 8003186:	b292      	uxth	r2, r2
 8003188:	fb93 f3f2 	sdiv	r3, r3, r2
 800318c:	4a14      	ldr	r2, [pc, #80]	@ (80031e0 <proceed+0x2a4>)
							TIM15 -> ARR = 5000;
 800318e:	490a      	ldr	r1, [pc, #40]	@ (80031b8 <proceed+0x27c>)
							StartSpeed_count = 5000;
 8003190:	8030      	strh	r0, [r6, #0]
							Delta_count = (StartSpeed_count - SP)/acs_dist + 1;
 8003192:	3301      	adds	r3, #1
 8003194:	8013      	strh	r3, [r2, #0]
							station_structure->status = 5; //перемещение по алгоритму(меандр)
 8003196:	2305      	movs	r3, #5
 8003198:	812b      	strh	r3, [r5, #8]
							TIM15 -> CCR1 = 2500;
 800319a:	f640 13c4 	movw	r3, #2500	@ 0x9c4
							TIM15 -> ARR = 5000;
 800319e:	62c8      	str	r0, [r1, #44]	@ 0x2c
							TIM15 -> CCR1 = 2500;
 80031a0:	634b      	str	r3, [r1, #52]	@ 0x34
							TIM15 -> CCR2 = 2500;
 80031a2:	638b      	str	r3, [r1, #56]	@ 0x38
 80031a4:	e763      	b.n	800306e <proceed+0x132>
 80031a6:	bf00      	nop
 80031a8:	51eb851f 	.word	0x51eb851f
 80031ac:	20000344 	.word	0x20000344
 80031b0:	2000005c 	.word	0x2000005c
 80031b4:	20000067 	.word	0x20000067
 80031b8:	40014000 	.word	0x40014000
 80031bc:	20000034 	.word	0x20000034
 80031c0:	200003cc 	.word	0x200003cc
 80031c4:	20000040 	.word	0x20000040
 80031c8:	20000033 	.word	0x20000033
 80031cc:	20000032 	.word	0x20000032
 80031d0:	2000003e 	.word	0x2000003e
 80031d4:	000f4240 	.word	0x000f4240
 80031d8:	2000003a 	.word	0x2000003a
 80031dc:	2000003c 	.word	0x2000003c
 80031e0:	20000038 	.word	0x20000038

080031e4 <HAL_MspInit>:

  /* USER CODE BEGIN MspInit 0 */

  /* USER CODE END MspInit 0 */

  __HAL_RCC_SYSCFG_CLK_ENABLE();
 80031e4:	4b0b      	ldr	r3, [pc, #44]	@ (8003214 <HAL_MspInit+0x30>)
 80031e6:	699a      	ldr	r2, [r3, #24]
 80031e8:	f042 0201 	orr.w	r2, r2, #1
{
 80031ec:	b082      	sub	sp, #8
  __HAL_RCC_SYSCFG_CLK_ENABLE();
 80031ee:	619a      	str	r2, [r3, #24]
 80031f0:	699a      	ldr	r2, [r3, #24]
 80031f2:	f002 0201 	and.w	r2, r2, #1
 80031f6:	9200      	str	r2, [sp, #0]
 80031f8:	9a00      	ldr	r2, [sp, #0]
  __HAL_RCC_PWR_CLK_ENABLE();
 80031fa:	69da      	ldr	r2, [r3, #28]
 80031fc:	f042 5280 	orr.w	r2, r2, #268435456	@ 0x10000000
 8003200:	61da      	str	r2, [r3, #28]
 8003202:	69db      	ldr	r3, [r3, #28]
 8003204:	f003 5380 	and.w	r3, r3, #268435456	@ 0x10000000
 8003208:	9301      	str	r3, [sp, #4]
 800320a:	9b01      	ldr	r3, [sp, #4]

  HAL_NVIC_SetPriorityGrouping(NVIC_PRIORITYGROUP_2);
 800320c:	2005      	movs	r0, #5
  /* System interrupt init*/

  /* USER CODE BEGIN MspInit 1 */

  /* USER CODE END MspInit 1 */
}
 800320e:	b002      	add	sp, #8
  HAL_NVIC_SetPriorityGrouping(NVIC_PRIORITYGROUP_2);
 8003210:	f7fd b822 	b.w	8000258 <HAL_NVIC_SetPriorityGrouping>
 8003214:	40021000 	.word	0x40021000

08003218 <HAL_SPI_MspInit>:
  * This function configures the hardware resources used in this example
  * @param hspi: SPI handle pointer
  * @retval None
  */
void HAL_SPI_MspInit(SPI_HandleTypeDef* hspi)
{
 8003218:	b510      	push	{r4, lr}
  GPIO_InitTypeDef GPIO_InitStruct = {0};
  if(hspi->Instance==SPI1)
 800321a:	4a1b      	ldr	r2, [pc, #108]	@ (8003288 <HAL_SPI_MspInit+0x70>)
 800321c:	6801      	ldr	r1, [r0, #0]
{
 800321e:	b088      	sub	sp, #32
  GPIO_InitTypeDef GPIO_InitStruct = {0};
 8003220:	2300      	movs	r3, #0
  if(hspi->Instance==SPI1)
 8003222:	4291      	cmp	r1, r2
  GPIO_InitTypeDef GPIO_InitStruct = {0};
 8003224:	e9cd 3302 	strd	r3, r3, [sp, #8]
 8003228:	e9cd 3304 	strd	r3, r3, [sp, #16]
 800322c:	9306      	str	r3, [sp, #24]
  if(hspi->Instance==SPI1)
 800322e:	d001      	beq.n	8003234 <HAL_SPI_MspInit+0x1c>

    /* USER CODE END SPI1_MspInit 1 */

  }

}
 8003230:	b008      	add	sp, #32
 8003232:	bd10      	pop	{r4, pc}
    __HAL_RCC_SPI1_CLK_ENABLE();
 8003234:	f103 4380 	add.w	r3, r3, #1073741824	@ 0x40000000
 8003238:	f503 3304 	add.w	r3, r3, #135168	@ 0x21000
    GPIO_InitStruct.Pin = SPI1_SCK_Pin|SPI1_MISO_Pin|SPI1_MISOA7_Pin;
 800323c:	ed9f 7b10 	vldr	d7, [pc, #64]	@ 8003280 <HAL_SPI_MspInit+0x68>
    __HAL_RCC_SPI1_CLK_ENABLE();
 8003240:	699a      	ldr	r2, [r3, #24]
 8003242:	f442 5280 	orr.w	r2, r2, #4096	@ 0x1000
 8003246:	619a      	str	r2, [r3, #24]
 8003248:	699a      	ldr	r2, [r3, #24]
 800324a:	f402 5280 	and.w	r2, r2, #4096	@ 0x1000
 800324e:	9200      	str	r2, [sp, #0]
 8003250:	9a00      	ldr	r2, [sp, #0]
    __HAL_RCC_GPIOA_CLK_ENABLE();
 8003252:	695a      	ldr	r2, [r3, #20]
 8003254:	f442 3200 	orr.w	r2, r2, #131072	@ 0x20000
 8003258:	615a      	str	r2, [r3, #20]
 800325a:	695b      	ldr	r3, [r3, #20]
 800325c:	f403 3300 	and.w	r3, r3, #131072	@ 0x20000
 8003260:	9301      	str	r3, [sp, #4]
    GPIO_InitStruct.Speed = GPIO_SPEED_FREQ_HIGH;
 8003262:	2203      	movs	r2, #3
 8003264:	2305      	movs	r3, #5
    HAL_GPIO_Init(GPIOA, &GPIO_InitStruct);
 8003266:	a902      	add	r1, sp, #8
 8003268:	f04f 4090 	mov.w	r0, #1207959552	@ 0x48000000
    GPIO_InitStruct.Pin = SPI1_SCK_Pin|SPI1_MISO_Pin|SPI1_MISOA7_Pin;
 800326c:	ed8d 7b02 	vstr	d7, [sp, #8]
    GPIO_InitStruct.Speed = GPIO_SPEED_FREQ_HIGH;
 8003270:	e9cd 2305 	strd	r2, r3, [sp, #20]
    __HAL_RCC_GPIOA_CLK_ENABLE();
 8003274:	9c01      	ldr	r4, [sp, #4]
    HAL_GPIO_Init(GPIOA, &GPIO_InitStruct);
 8003276:	f7fd f8a9 	bl	80003cc <HAL_GPIO_Init>
}
 800327a:	b008      	add	sp, #32
 800327c:	bd10      	pop	{r4, pc}
 800327e:	bf00      	nop
 8003280:	000000e0 	.word	0x000000e0
 8003284:	00000002 	.word	0x00000002
 8003288:	40013000 	.word	0x40013000

0800328c <HAL_TIM_PWM_MspInit>:
  * This function configures the hardware resources used in this example
  * @param htim_pwm: TIM_PWM handle pointer
  * @retval None
  */
void HAL_TIM_PWM_MspInit(TIM_HandleTypeDef* htim_pwm)
{
 800328c:	b500      	push	{lr}
  if(htim_pwm->Instance==TIM1)
 800328e:	4a17      	ldr	r2, [pc, #92]	@ (80032ec <HAL_TIM_PWM_MspInit+0x60>)
 8003290:	6803      	ldr	r3, [r0, #0]
 8003292:	4293      	cmp	r3, r2
{
 8003294:	b083      	sub	sp, #12
  if(htim_pwm->Instance==TIM1)
 8003296:	d005      	beq.n	80032a4 <HAL_TIM_PWM_MspInit+0x18>
    HAL_NVIC_EnableIRQ(TIM1_BRK_TIM15_IRQn);
    /* USER CODE BEGIN TIM1_MspInit 1 */

    /* USER CODE END TIM1_MspInit 1 */
  }
  else if(htim_pwm->Instance==TIM15)
 8003298:	4a15      	ldr	r2, [pc, #84]	@ (80032f0 <HAL_TIM_PWM_MspInit+0x64>)
 800329a:	4293      	cmp	r3, r2
 800329c:	d017      	beq.n	80032ce <HAL_TIM_PWM_MspInit+0x42>
    /* USER CODE BEGIN TIM15_MspInit 1 */

    /* USER CODE END TIM15_MspInit 1 */
  }

}
 800329e:	b003      	add	sp, #12
 80032a0:	f85d fb04 	ldr.w	pc, [sp], #4
    __HAL_RCC_TIM1_CLK_ENABLE();
 80032a4:	4b13      	ldr	r3, [pc, #76]	@ (80032f4 <HAL_TIM_PWM_MspInit+0x68>)
 80032a6:	6998      	ldr	r0, [r3, #24]
 80032a8:	f440 6000 	orr.w	r0, r0, #2048	@ 0x800
 80032ac:	6198      	str	r0, [r3, #24]
 80032ae:	699b      	ldr	r3, [r3, #24]
 80032b0:	f403 6300 	and.w	r3, r3, #2048	@ 0x800
 80032b4:	9300      	str	r3, [sp, #0]
    HAL_NVIC_SetPriority(TIM1_BRK_TIM15_IRQn, 0, 0);
 80032b6:	2200      	movs	r2, #0
    __HAL_RCC_TIM1_CLK_ENABLE();
 80032b8:	9b00      	ldr	r3, [sp, #0]
    HAL_NVIC_SetPriority(TIM1_BRK_TIM15_IRQn, 0, 0);
 80032ba:	4611      	mov	r1, r2
 80032bc:	2018      	movs	r0, #24
    HAL_NVIC_SetPriority(TIM1_BRK_TIM15_IRQn, 0, 0);
 80032be:	f7fc ffdd 	bl	800027c <HAL_NVIC_SetPriority>
    HAL_NVIC_EnableIRQ(TIM1_BRK_TIM15_IRQn);
 80032c2:	2018      	movs	r0, #24
}
 80032c4:	b003      	add	sp, #12
 80032c6:	f85d eb04 	ldr.w	lr, [sp], #4
    HAL_NVIC_EnableIRQ(TIM1_BRK_TIM15_IRQn);
 80032ca:	f7fd b813 	b.w	80002f4 <HAL_NVIC_EnableIRQ>
    __HAL_RCC_TIM15_CLK_ENABLE();
 80032ce:	4b09      	ldr	r3, [pc, #36]	@ (80032f4 <HAL_TIM_PWM_MspInit+0x68>)
 80032d0:	6998      	ldr	r0, [r3, #24]
 80032d2:	f440 3080 	orr.w	r0, r0, #65536	@ 0x10000
 80032d6:	6198      	str	r0, [r3, #24]
 80032d8:	699b      	ldr	r3, [r3, #24]
 80032da:	f403 3380 	and.w	r3, r3, #65536	@ 0x10000
    HAL_NVIC_SetPriority(TIM1_BRK_TIM15_IRQn, 0, 0);
 80032de:	2200      	movs	r2, #0
    __HAL_RCC_TIM15_CLK_ENABLE();
 80032e0:	9301      	str	r3, [sp, #4]
 80032e2:	9b01      	ldr	r3, [sp, #4]
    HAL_NVIC_SetPriority(TIM1_BRK_TIM15_IRQn, 0, 0);
 80032e4:	4611      	mov	r1, r2
 80032e6:	2018      	movs	r0, #24
 80032e8:	e7e9      	b.n	80032be <HAL_TIM_PWM_MspInit+0x32>
 80032ea:	bf00      	nop
 80032ec:	40012c00 	.word	0x40012c00
 80032f0:	40014000 	.word	0x40014000
 80032f4:	40021000 	.word	0x40021000

080032f8 <HAL_TIM_MspPostInit>:

void HAL_TIM_MspPostInit(TIM_HandleTypeDef* htim)
{
 80032f8:	b500      	push	{lr}
  GPIO_InitTypeDef GPIO_InitStruct = {0};
  if(htim->Instance==TIM1)
 80032fa:	6802      	ldr	r2, [r0, #0]
 80032fc:	4926      	ldr	r1, [pc, #152]	@ (8003398 <HAL_TIM_MspPostInit+0xa0>)
{
 80032fe:	b089      	sub	sp, #36	@ 0x24
  GPIO_InitTypeDef GPIO_InitStruct = {0};
 8003300:	2300      	movs	r3, #0
  if(htim->Instance==TIM1)
 8003302:	428a      	cmp	r2, r1
  GPIO_InitTypeDef GPIO_InitStruct = {0};
 8003304:	e9cd 3302 	strd	r3, r3, [sp, #8]
 8003308:	e9cd 3304 	strd	r3, r3, [sp, #16]
 800330c:	9306      	str	r3, [sp, #24]
  if(htim->Instance==TIM1)
 800330e:	d005      	beq.n	800331c <HAL_TIM_MspPostInit+0x24>

    /* USER CODE BEGIN TIM1_MspPostInit 1 */

    /* USER CODE END TIM1_MspPostInit 1 */
  }
  else if(htim->Instance==TIM15)
 8003310:	4b22      	ldr	r3, [pc, #136]	@ (800339c <HAL_TIM_MspPostInit+0xa4>)
 8003312:	429a      	cmp	r2, r3
 8003314:	d01c      	beq.n	8003350 <HAL_TIM_MspPostInit+0x58>
    /* USER CODE BEGIN TIM15_MspPostInit 1 */

    /* USER CODE END TIM15_MspPostInit 1 */
  }

}
 8003316:	b009      	add	sp, #36	@ 0x24
 8003318:	f85d fb04 	ldr.w	pc, [sp], #4
    __HAL_RCC_GPIOE_CLK_ENABLE();
 800331c:	f103 4380 	add.w	r3, r3, #1073741824	@ 0x40000000
 8003320:	f503 3304 	add.w	r3, r3, #135168	@ 0x21000
    GPIO_InitStruct.Pin = GPIO_PIN_9;
 8003324:	ed9f 7b18 	vldr	d7, [pc, #96]	@ 8003388 <HAL_TIM_MspPostInit+0x90>
    __HAL_RCC_GPIOE_CLK_ENABLE();
 8003328:	695a      	ldr	r2, [r3, #20]
    HAL_GPIO_Init(GPIOE, &GPIO_InitStruct);
 800332a:	481d      	ldr	r0, [pc, #116]	@ (80033a0 <HAL_TIM_MspPostInit+0xa8>)
    __HAL_RCC_GPIOE_CLK_ENABLE();
 800332c:	f442 1200 	orr.w	r2, r2, #2097152	@ 0x200000
 8003330:	615a      	str	r2, [r3, #20]
 8003332:	695b      	ldr	r3, [r3, #20]
 8003334:	f403 1300 	and.w	r3, r3, #2097152	@ 0x200000
 8003338:	9300      	str	r3, [sp, #0]
    HAL_GPIO_Init(GPIOE, &GPIO_InitStruct);
 800333a:	a902      	add	r1, sp, #8
    GPIO_InitStruct.Alternate = GPIO_AF2_TIM1;
 800333c:	2302      	movs	r3, #2
    GPIO_InitStruct.Pin = GPIO_PIN_9;
 800333e:	ed8d 7b02 	vstr	d7, [sp, #8]
    __HAL_RCC_GPIOE_CLK_ENABLE();
 8003342:	9a00      	ldr	r2, [sp, #0]
    GPIO_InitStruct.Alternate = GPIO_AF2_TIM1;
 8003344:	9306      	str	r3, [sp, #24]
    HAL_GPIO_Init(GPIOE, &GPIO_InitStruct);
 8003346:	f7fd f841 	bl	80003cc <HAL_GPIO_Init>
}
 800334a:	b009      	add	sp, #36	@ 0x24
 800334c:	f85d fb04 	ldr.w	pc, [sp], #4
    __HAL_RCC_GPIOA_CLK_ENABLE();
 8003350:	f503 4350 	add.w	r3, r3, #53248	@ 0xd000
    GPIO_InitStruct.Pin = GPIO_PIN_2|GPIO_PIN_3;
 8003354:	ed9f 7b0e 	vldr	d7, [pc, #56]	@ 8003390 <HAL_TIM_MspPostInit+0x98>
    __HAL_RCC_GPIOA_CLK_ENABLE();
 8003358:	695a      	ldr	r2, [r3, #20]
 800335a:	f442 3200 	orr.w	r2, r2, #131072	@ 0x20000
 800335e:	615a      	str	r2, [r3, #20]
 8003360:	695b      	ldr	r3, [r3, #20]
 8003362:	f403 3300 	and.w	r3, r3, #131072	@ 0x20000
 8003366:	9301      	str	r3, [sp, #4]
    HAL_GPIO_Init(GPIOA, &GPIO_InitStruct);
 8003368:	a902      	add	r1, sp, #8
    GPIO_InitStruct.Alternate = GPIO_AF9_TIM15;
 800336a:	2309      	movs	r3, #9
    HAL_GPIO_Init(GPIOA, &GPIO_InitStruct);
 800336c:	f04f 4090 	mov.w	r0, #1207959552	@ 0x48000000
    GPIO_InitStruct.Pin = GPIO_PIN_2|GPIO_PIN_3;
 8003370:	ed8d 7b02 	vstr	d7, [sp, #8]
    __HAL_RCC_GPIOA_CLK_ENABLE();
 8003374:	9a01      	ldr	r2, [sp, #4]
    GPIO_InitStruct.Alternate = GPIO_AF9_TIM15;
 8003376:	9306      	str	r3, [sp, #24]
    HAL_GPIO_Init(GPIOA, &GPIO_InitStruct);
 8003378:	f7fd f828 	bl	80003cc <HAL_GPIO_Init>
}
 800337c:	b009      	add	sp, #36	@ 0x24
 800337e:	f85d fb04 	ldr.w	pc, [sp], #4
 8003382:	bf00      	nop
 8003384:	f3af 8000 	nop.w
 8003388:	00000200 	.word	0x00000200
 800338c:	00000002 	.word	0x00000002
 8003390:	0000000c 	.word	0x0000000c
 8003394:	00000002 	.word	0x00000002
 8003398:	40012c00 	.word	0x40012c00
 800339c:	40014000 	.word	0x40014000
 80033a0:	48001000 	.word	0x48001000
 80033a4:	00000000 	.word	0x00000000

080033a8 <HAL_UART_MspInit>:
  * This function configures the hardware resources used in this example
  * @param huart: UART handle pointer
  * @retval None
  */
void HAL_UART_MspInit(UART_HandleTypeDef* huart)
{
 80033a8:	b510      	push	{r4, lr}
  GPIO_InitTypeDef GPIO_InitStruct = {0};
  if(huart->Instance==UART4)
 80033aa:	4a1f      	ldr	r2, [pc, #124]	@ (8003428 <HAL_UART_MspInit+0x80>)
 80033ac:	6801      	ldr	r1, [r0, #0]
{
 80033ae:	b088      	sub	sp, #32
  GPIO_InitTypeDef GPIO_InitStruct = {0};
 80033b0:	2300      	movs	r3, #0
  if(huart->Instance==UART4)
 80033b2:	4291      	cmp	r1, r2
  GPIO_InitTypeDef GPIO_InitStruct = {0};
 80033b4:	e9cd 3302 	strd	r3, r3, [sp, #8]
 80033b8:	e9cd 3304 	strd	r3, r3, [sp, #16]
 80033bc:	9306      	str	r3, [sp, #24]
  if(huart->Instance==UART4)
 80033be:	d001      	beq.n	80033c4 <HAL_UART_MspInit+0x1c>

    /* USER CODE END UART4_MspInit 1 */

  }

}
 80033c0:	b008      	add	sp, #32
 80033c2:	bd10      	pop	{r4, pc}
    __HAL_RCC_UART4_CLK_ENABLE();
 80033c4:	f103 4380 	add.w	r3, r3, #1073741824	@ 0x40000000
 80033c8:	f503 3304 	add.w	r3, r3, #135168	@ 0x21000
    GPIO_InitStruct.Pin = GPIO_PIN_10|GPIO_PIN_11;
 80033cc:	ed9f 7b14 	vldr	d7, [pc, #80]	@ 8003420 <HAL_UART_MspInit+0x78>
    __HAL_RCC_UART4_CLK_ENABLE();
 80033d0:	69da      	ldr	r2, [r3, #28]
    HAL_GPIO_Init(GPIOC, &GPIO_InitStruct);
 80033d2:	4816      	ldr	r0, [pc, #88]	@ (800342c <HAL_UART_MspInit+0x84>)
    __HAL_RCC_UART4_CLK_ENABLE();
 80033d4:	f442 2200 	orr.w	r2, r2, #524288	@ 0x80000
 80033d8:	61da      	str	r2, [r3, #28]
 80033da:	69da      	ldr	r2, [r3, #28]
 80033dc:	f402 2200 	and.w	r2, r2, #524288	@ 0x80000
 80033e0:	9200      	str	r2, [sp, #0]
 80033e2:	9a00      	ldr	r2, [sp, #0]
    __HAL_RCC_GPIOC_CLK_ENABLE();
 80033e4:	695a      	ldr	r2, [r3, #20]
 80033e6:	f442 2200 	orr.w	r2, r2, #524288	@ 0x80000
 80033ea:	615a      	str	r2, [r3, #20]
 80033ec:	695b      	ldr	r3, [r3, #20]
 80033ee:	f403 2300 	and.w	r3, r3, #524288	@ 0x80000
 80033f2:	9301      	str	r3, [sp, #4]
    HAL_GPIO_Init(GPIOC, &GPIO_InitStruct);
 80033f4:	a902      	add	r1, sp, #8
    GPIO_InitStruct.Speed = GPIO_SPEED_FREQ_HIGH;
 80033f6:	2305      	movs	r3, #5
 80033f8:	2203      	movs	r2, #3
 80033fa:	e9cd 2305 	strd	r2, r3, [sp, #20]
    GPIO_InitStruct.Pin = GPIO_PIN_10|GPIO_PIN_11;
 80033fe:	ed8d 7b02 	vstr	d7, [sp, #8]
    __HAL_RCC_GPIOC_CLK_ENABLE();
 8003402:	9c01      	ldr	r4, [sp, #4]
    HAL_GPIO_Init(GPIOC, &GPIO_InitStruct);
 8003404:	f7fc ffe2 	bl	80003cc <HAL_GPIO_Init>
    HAL_NVIC_SetPriority(UART4_IRQn, 1, 1);
 8003408:	2201      	movs	r2, #1
 800340a:	4611      	mov	r1, r2
 800340c:	2034      	movs	r0, #52	@ 0x34
 800340e:	f7fc ff35 	bl	800027c <HAL_NVIC_SetPriority>
    HAL_NVIC_EnableIRQ(UART4_IRQn);
 8003412:	2034      	movs	r0, #52	@ 0x34
 8003414:	f7fc ff6e 	bl	80002f4 <HAL_NVIC_EnableIRQ>
}
 8003418:	b008      	add	sp, #32
 800341a:	bd10      	pop	{r4, pc}
 800341c:	f3af 8000 	nop.w
 8003420:	00000c00 	.word	0x00000c00
 8003424:	00000002 	.word	0x00000002
 8003428:	40004c00 	.word	0x40004c00
 800342c:	48000800 	.word	0x48000800

08003430 <HAL_PCD_MspInit>:
  * This function configures the hardware resources used in this example
  * @param hpcd: PCD handle pointer
  * @retval None
  */
void HAL_PCD_MspInit(PCD_HandleTypeDef* hpcd)
{
 8003430:	b530      	push	{r4, r5, lr}
  GPIO_InitTypeDef GPIO_InitStruct = {0};
  if(hpcd->Instance==USB)
 8003432:	4a19      	ldr	r2, [pc, #100]	@ (8003498 <HAL_PCD_MspInit+0x68>)
 8003434:	6801      	ldr	r1, [r0, #0]
{
 8003436:	b089      	sub	sp, #36	@ 0x24
  GPIO_InitTypeDef GPIO_InitStruct = {0};
 8003438:	2300      	movs	r3, #0
  if(hpcd->Instance==USB)
 800343a:	4291      	cmp	r1, r2
  GPIO_InitTypeDef GPIO_InitStruct = {0};
 800343c:	e9cd 3302 	strd	r3, r3, [sp, #8]
 8003440:	e9cd 3304 	strd	r3, r3, [sp, #16]
 8003444:	9306      	str	r3, [sp, #24]
  if(hpcd->Instance==USB)
 8003446:	d001      	beq.n	800344c <HAL_PCD_MspInit+0x1c>

    /* USER CODE END USB_MspInit 1 */

  }

}
 8003448:	b009      	add	sp, #36	@ 0x24
 800344a:	bd30      	pop	{r4, r5, pc}
    __HAL_RCC_GPIOA_CLK_ENABLE();
 800344c:	4c13      	ldr	r4, [pc, #76]	@ (800349c <HAL_PCD_MspInit+0x6c>)
 800344e:	6963      	ldr	r3, [r4, #20]
 8003450:	f443 3300 	orr.w	r3, r3, #131072	@ 0x20000
 8003454:	6163      	str	r3, [r4, #20]
 8003456:	6963      	ldr	r3, [r4, #20]
    GPIO_InitStruct.Pin = DM_Pin|DP_Pin;
 8003458:	ed9f 7b0d 	vldr	d7, [pc, #52]	@ 8003490 <HAL_PCD_MspInit+0x60>
    __HAL_RCC_GPIOA_CLK_ENABLE();
 800345c:	f403 3300 	and.w	r3, r3, #131072	@ 0x20000
 8003460:	9300      	str	r3, [sp, #0]
    GPIO_InitStruct.Speed = GPIO_SPEED_FREQ_HIGH;
 8003462:	2203      	movs	r2, #3
 8003464:	230e      	movs	r3, #14
    HAL_GPIO_Init(GPIOA, &GPIO_InitStruct);
 8003466:	a902      	add	r1, sp, #8
 8003468:	f04f 4090 	mov.w	r0, #1207959552	@ 0x48000000
    GPIO_InitStruct.Speed = GPIO_SPEED_FREQ_HIGH;
 800346c:	e9cd 2305 	strd	r2, r3, [sp, #20]
    GPIO_InitStruct.Pin = DM_Pin|DP_Pin;
 8003470:	ed8d 7b02 	vstr	d7, [sp, #8]
    __HAL_RCC_GPIOA_CLK_ENABLE();
 8003474:	9d00      	ldr	r5, [sp, #0]
    HAL_GPIO_Init(GPIOA, &GPIO_InitStruct);
 8003476:	f7fc ffa9 	bl	80003cc <HAL_GPIO_Init>
    __HAL_RCC_USB_CLK_ENABLE();
 800347a:	69e3      	ldr	r3, [r4, #28]
 800347c:	f443 0300 	orr.w	r3, r3, #8388608	@ 0x800000
 8003480:	61e3      	str	r3, [r4, #28]
 8003482:	69e3      	ldr	r3, [r4, #28]
 8003484:	f403 0300 	and.w	r3, r3, #8388608	@ 0x800000
 8003488:	9301      	str	r3, [sp, #4]
 800348a:	9b01      	ldr	r3, [sp, #4]
}
 800348c:	b009      	add	sp, #36	@ 0x24
 800348e:	bd30      	pop	{r4, r5, pc}
 8003490:	00001800 	.word	0x00001800
 8003494:	00000002 	.word	0x00000002
 8003498:	40005c00 	.word	0x40005c00
 800349c:	40021000 	.word	0x40021000

080034a0 <NMI_Handler>:
{
  /* USER CODE BEGIN NonMaskableInt_IRQn 0 */

  /* USER CODE END NonMaskableInt_IRQn 0 */
  /* USER CODE BEGIN NonMaskableInt_IRQn 1 */
   while (1)
 80034a0:	e7fe      	b.n	80034a0 <NMI_Handler>
 80034a2:	bf00      	nop

080034a4 <HardFault_Handler>:
void HardFault_Handler(void)
{
  /* USER CODE BEGIN HardFault_IRQn 0 */

  /* USER CODE END HardFault_IRQn 0 */
  while (1)
 80034a4:	e7fe      	b.n	80034a4 <HardFault_Handler>
 80034a6:	bf00      	nop

080034a8 <MemManage_Handler>:
void MemManage_Handler(void)
{
  /* USER CODE BEGIN MemoryManagement_IRQn 0 */

  /* USER CODE END MemoryManagement_IRQn 0 */
  while (1)
 80034a8:	e7fe      	b.n	80034a8 <MemManage_Handler>
 80034aa:	bf00      	nop

080034ac <BusFault_Handler>:
void BusFault_Handler(void)
{
  /* USER CODE BEGIN BusFault_IRQn 0 */

  /* USER CODE END BusFault_IRQn 0 */
  while (1)
 80034ac:	e7fe      	b.n	80034ac <BusFault_Handler>
 80034ae:	bf00      	nop

080034b0 <UsageFault_Handler>:
void UsageFault_Handler(void)
{
  /* USER CODE BEGIN UsageFault_IRQn 0 */

  /* USER CODE END UsageFault_IRQn 0 */
  while (1)
 80034b0:	e7fe      	b.n	80034b0 <UsageFault_Handler>
 80034b2:	bf00      	nop

080034b4 <SVC_Handler>:

  /* USER CODE END SVCall_IRQn 0 */
  /* USER CODE BEGIN SVCall_IRQn 1 */

  /* USER CODE END SVCall_IRQn 1 */
}
 80034b4:	4770      	bx	lr
 80034b6:	bf00      	nop

080034b8 <DebugMon_Handler>:

/**
  * @brief This function handles Debug monitor.
  */
void DebugMon_Handler(void)
 80034b8:	4770      	bx	lr
 80034ba:	bf00      	nop

080034bc <PendSV_Handler>:
}

/**
  * @brief This function handles Pendable request for system service.
  */
void PendSV_Handler(void)
 80034bc:	4770      	bx	lr
 80034be:	bf00      	nop

080034c0 <SysTick_Handler>:
void SysTick_Handler(void)
{
  /* USER CODE BEGIN SysTick_IRQn 0 */

  /* USER CODE END SysTick_IRQn 0 */
  HAL_IncTick();
 80034c0:	f7fc beb8 	b.w	8000234 <HAL_IncTick>

080034c4 <TIM1_BRK_TIM15_IRQHandler>:

/**
  * @brief This function handles TIM1 break and TIM15 interrupts.
  */
void TIM1_BRK_TIM15_IRQHandler(void)
{
 80034c4:	b5f8      	push	{r3, r4, r5, r6, r7, lr}
  /* USER CODE BEGIN TIM1_BRK_TIM15_IRQn 0 */
  if(station_struct.status == 1){
 80034c6:	4caa      	ldr	r4, [pc, #680]	@ (8003770 <TIM1_BRK_TIM15_IRQHandler+0x2ac>)
	  if(step_counter < station_struct.coordinate){
 80034c8:	4daa      	ldr	r5, [pc, #680]	@ (8003774 <TIM1_BRK_TIM15_IRQHandler+0x2b0>)
  if(station_struct.status == 1){
 80034ca:	8923      	ldrh	r3, [r4, #8]
 80034cc:	2b01      	cmp	r3, #1
 80034ce:	d013      	beq.n	80034f8 <TIM1_BRK_TIM15_IRQHandler+0x34>
		  RS485_TRANSMITTER.frame[0] = 32;
		  HAL_UART_Transmit(&huart4, RS485_TRANSMITTER.frame, 9, HAL_MAX_DELAY);
		  HAL_UART_Transmit(&huart4, &newline_char, 1, HAL_MAX_DELAY);
	  }
  }
  if(station_struct.status == 2){
 80034d0:	2b02      	cmp	r3, #2
 80034d2:	f000 8097 	beq.w	8003604 <TIM1_BRK_TIM15_IRQHandler+0x140>
		  }
		  HAL_UART_Transmit(&huart4, RS485_TRANSMITTER.frame, 9, HAL_MAX_DELAY);
		  HAL_UART_Transmit(&huart4, &newline_char, 1, HAL_MAX_DELAY);
	  }
  }
  if(station_struct.status == 3){
 80034d6:	2b03      	cmp	r3, #3
 80034d8:	d061      	beq.n	800359e <TIM1_BRK_TIM15_IRQHandler+0xda>
		 }
		 HAL_UART_Transmit(&huart4, RS485_TRANSMITTER.frame, 9, HAL_MAX_DELAY);
		 HAL_UART_Transmit(&huart4, &newline_char, 1, HAL_MAX_DELAY);
  	  }
    }
  if(station_struct.status == 4){
 80034da:	2b04      	cmp	r3, #4
 80034dc:	d04f      	beq.n	800357e <TIM1_BRK_TIM15_IRQHandler+0xba>
		  RS485_TRANSMITTER.frame[0] = 32;
		  HAL_UART_Transmit(&huart4, RS485_TRANSMITTER.frame, 9, HAL_MAX_DELAY);
		  HAL_UART_Transmit(&huart4, &newline_char, 1, HAL_MAX_DELAY);
	  }
  }
  if(station_struct.status == 5){
 80034de:	2b05      	cmp	r3, #5
 80034e0:	d030      	beq.n	8003544 <TIM1_BRK_TIM15_IRQHandler+0x80>
		HAL_TIM_PWM_Stop_IT(&htim15, TIM_CHANNEL_2);
		HAL_TIM_Base_Stop_IT(&htim15);
	}
  }
  //TIM15->SR &= ~TIM_SR_UIF; //сброс флага прерывания
  step_counter++;
 80034e2:	682b      	ldr	r3, [r5, #0]
  /* USER CODE END TIM1_BRK_TIM15_IRQn 0 */
  HAL_TIM_IRQHandler(&htim1);
 80034e4:	48a4      	ldr	r0, [pc, #656]	@ (8003778 <TIM1_BRK_TIM15_IRQHandler+0x2b4>)
  step_counter++;
 80034e6:	3301      	adds	r3, #1
 80034e8:	602b      	str	r3, [r5, #0]
  HAL_TIM_IRQHandler(&htim1);
 80034ea:	f7fe f9ef 	bl	80018cc <HAL_TIM_IRQHandler>
  HAL_TIM_IRQHandler(&htim15);
  /* USER CODE BEGIN TIM1_BRK_TIM15_IRQn 1 */

  /* USER CODE END TIM1_BRK_TIM15_IRQn 1 */
}
 80034ee:	e8bd 40f8 	ldmia.w	sp!, {r3, r4, r5, r6, r7, lr}
  HAL_TIM_IRQHandler(&htim15);
 80034f2:	48a2      	ldr	r0, [pc, #648]	@ (800377c <TIM1_BRK_TIM15_IRQHandler+0x2b8>)
 80034f4:	f7fe b9ea 	b.w	80018cc <HAL_TIM_IRQHandler>
	  if(step_counter < station_struct.coordinate){
 80034f8:	88a3      	ldrh	r3, [r4, #4]
 80034fa:	6829      	ldr	r1, [r5, #0]
 80034fc:	428b      	cmp	r3, r1
 80034fe:	f240 80b3 	bls.w	8003668 <TIM1_BRK_TIM15_IRQHandler+0x1a4>
			if(step_counter < acs_dist || TIM15->ARR == SP){
 8003502:	4a9f      	ldr	r2, [pc, #636]	@ (8003780 <TIM1_BRK_TIM15_IRQHandler+0x2bc>)
 8003504:	8816      	ldrh	r6, [r2, #0]
 8003506:	4a9f      	ldr	r2, [pc, #636]	@ (8003784 <TIM1_BRK_TIM15_IRQHandler+0x2c0>)
 8003508:	42b1      	cmp	r1, r6
 800350a:	8810      	ldrh	r0, [r2, #0]
 800350c:	f0c0 815f 	bcc.w	80037ce <TIM1_BRK_TIM15_IRQHandler+0x30a>
 8003510:	4a9d      	ldr	r2, [pc, #628]	@ (8003788 <TIM1_BRK_TIM15_IRQHandler+0x2c4>)
 8003512:	6ad2      	ldr	r2, [r2, #44]	@ 0x2c
 8003514:	4282      	cmp	r2, r0
 8003516:	f000 815a 	beq.w	80037ce <TIM1_BRK_TIM15_IRQHandler+0x30a>
			if(step_counter >= station_struct.coordinate-acs_dist || TIM15->ARR == 5000){
 800351a:	1b9b      	subs	r3, r3, r6
 800351c:	4299      	cmp	r1, r3
 800351e:	f080 813f 	bcs.w	80037a0 <TIM1_BRK_TIM15_IRQHandler+0x2dc>
 8003522:	4a99      	ldr	r2, [pc, #612]	@ (8003788 <TIM1_BRK_TIM15_IRQHandler+0x2c4>)
 8003524:	6ad2      	ldr	r2, [r2, #44]	@ 0x2c
 8003526:	f241 3388 	movw	r3, #5000	@ 0x1388
 800352a:	429a      	cmp	r2, r3
 800352c:	f000 8138 	beq.w	80037a0 <TIM1_BRK_TIM15_IRQHandler+0x2dc>
	  if(step_counter == station_struct.coordinate || HAL_GPIO_ReadPin(GPIOA, GPIO_PIN_10) == GPIO_PIN_SET){
 8003530:	f44f 6180 	mov.w	r1, #1024	@ 0x400
 8003534:	f04f 4090 	mov.w	r0, #1207959552	@ 0x48000000
 8003538:	f7fd f8f8 	bl	800072c <HAL_GPIO_ReadPin>
 800353c:	2801      	cmp	r0, #1
 800353e:	f040 80bb 	bne.w	80036b8 <TIM1_BRK_TIM15_IRQHandler+0x1f4>
 8003542:	e093      	b.n	800366c <TIM1_BRK_TIM15_IRQHandler+0x1a8>
	if(station_struct.internal_progress == 0){
 8003544:	7d21      	ldrb	r1, [r4, #20]
 8003546:	2900      	cmp	r1, #0
 8003548:	f000 8158 	beq.w	80037fc <TIM1_BRK_TIM15_IRQHandler+0x338>
	if(station_struct.internal_progress == 1){
 800354c:	2901      	cmp	r1, #1
 800354e:	f000 819e 	beq.w	800388e <TIM1_BRK_TIM15_IRQHandler+0x3ca>
	if(station_struct.internal_progress == 2){
 8003552:	2902      	cmp	r1, #2
 8003554:	f000 81b1 	beq.w	80038ba <TIM1_BRK_TIM15_IRQHandler+0x3f6>
	if(station_struct.internal_progress == 3){
 8003558:	2903      	cmp	r1, #3
 800355a:	f000 81ee 	beq.w	800393a <TIM1_BRK_TIM15_IRQHandler+0x476>
			station_struct.external_progress +=1;
 800355e:	7ce3      	ldrb	r3, [r4, #19]
	if(station_struct.external_progress == station_struct.repetition){
 8003560:	7ca2      	ldrb	r2, [r4, #18]
 8003562:	429a      	cmp	r2, r3
 8003564:	d1bd      	bne.n	80034e2 <TIM1_BRK_TIM15_IRQHandler+0x1e>
		HAL_TIM_PWM_Stop_IT(&htim15, TIM_CHANNEL_1);
 8003566:	2100      	movs	r1, #0
 8003568:	4884      	ldr	r0, [pc, #528]	@ (800377c <TIM1_BRK_TIM15_IRQHandler+0x2b8>)
 800356a:	f7fe f92d 	bl	80017c8 <HAL_TIM_PWM_Stop_IT>
		HAL_TIM_PWM_Stop_IT(&htim15, TIM_CHANNEL_2);
 800356e:	2104      	movs	r1, #4
 8003570:	4882      	ldr	r0, [pc, #520]	@ (800377c <TIM1_BRK_TIM15_IRQHandler+0x2b8>)
 8003572:	f7fe f929 	bl	80017c8 <HAL_TIM_PWM_Stop_IT>
		HAL_TIM_Base_Stop_IT(&htim15);
 8003576:	4881      	ldr	r0, [pc, #516]	@ (800377c <TIM1_BRK_TIM15_IRQHandler+0x2b8>)
 8003578:	f7fd ffea 	bl	8001550 <HAL_TIM_Base_Stop_IT>
 800357c:	e7b1      	b.n	80034e2 <TIM1_BRK_TIM15_IRQHandler+0x1e>
	  if(step_counter == station_struct.coordinate || HAL_GPIO_ReadPin(GPIOA, GPIO_PIN_10) == GPIO_PIN_SET){
 800357e:	88a2      	ldrh	r2, [r4, #4]
 8003580:	682b      	ldr	r3, [r5, #0]
 8003582:	429a      	cmp	r2, r3
 8003584:	f000 80cc 	beq.w	8003720 <TIM1_BRK_TIM15_IRQHandler+0x25c>
 8003588:	f44f 6180 	mov.w	r1, #1024	@ 0x400
 800358c:	f04f 4090 	mov.w	r0, #1207959552	@ 0x48000000
 8003590:	f7fd f8cc 	bl	800072c <HAL_GPIO_ReadPin>
 8003594:	2801      	cmp	r0, #1
 8003596:	f000 80c3 	beq.w	8003720 <TIM1_BRK_TIM15_IRQHandler+0x25c>
  if(station_struct.status == 5){
 800359a:	8923      	ldrh	r3, [r4, #8]
 800359c:	e79f      	b.n	80034de <TIM1_BRK_TIM15_IRQHandler+0x1a>
  	  if(dist_y != 1){
 800359e:	4e7b      	ldr	r6, [pc, #492]	@ (800378c <TIM1_BRK_TIM15_IRQHandler+0x2c8>)
 80035a0:	7833      	ldrb	r3, [r6, #0]
 80035a2:	2b01      	cmp	r3, #1
 80035a4:	f040 80a2 	bne.w	80036ec <TIM1_BRK_TIM15_IRQHandler+0x228>
  	  if(step_counter == 200 && dist_y == 1){
 80035a8:	682b      	ldr	r3, [r5, #0]
 80035aa:	2bc8      	cmp	r3, #200	@ 0xc8
 80035ac:	f000 81f1 	beq.w	8003992 <TIM1_BRK_TIM15_IRQHandler+0x4ce>
  	  if(station_struct.y_home == 1|| step_counter == 16000){
 80035b0:	7ae2      	ldrb	r2, [r4, #11]
 80035b2:	2a01      	cmp	r2, #1
 80035b4:	d002      	beq.n	80035bc <TIM1_BRK_TIM15_IRQHandler+0xf8>
 80035b6:	f5b3 5f7a 	cmp.w	r3, #16000	@ 0x3e80
 80035ba:	d121      	bne.n	8003600 <TIM1_BRK_TIM15_IRQHandler+0x13c>
  		 HAL_TIM_PWM_Stop_IT(&htim15, TIM_CHANNEL_1);    // останавливаем ШИМ по каналу 1
 80035bc:	2100      	movs	r1, #0
 80035be:	486f      	ldr	r0, [pc, #444]	@ (800377c <TIM1_BRK_TIM15_IRQHandler+0x2b8>)
 80035c0:	f7fe f902 	bl	80017c8 <HAL_TIM_PWM_Stop_IT>
		 HAL_TIM_PWM_Stop_IT(&htim15, TIM_CHANNEL_2);
 80035c4:	2104      	movs	r1, #4
 80035c6:	486d      	ldr	r0, [pc, #436]	@ (800377c <TIM1_BRK_TIM15_IRQHandler+0x2b8>)
 80035c8:	f7fe f8fe 	bl	80017c8 <HAL_TIM_PWM_Stop_IT>
		 HAL_TIM_Base_Stop_IT(&htim15);
 80035cc:	486b      	ldr	r0, [pc, #428]	@ (800377c <TIM1_BRK_TIM15_IRQHandler+0x2b8>)
 80035ce:	f7fd ffbf 	bl	8001550 <HAL_TIM_Base_Stop_IT>
		 if(step_counter != 16000){
 80035d2:	682b      	ldr	r3, [r5, #0]
		 RS485_TRANSMITTER.frame[5] = 0;
 80035d4:	496e      	ldr	r1, [pc, #440]	@ (8003790 <TIM1_BRK_TIM15_IRQHandler+0x2cc>)
		 HAL_UART_Transmit(&huart4, RS485_TRANSMITTER.frame, 9, HAL_MAX_DELAY);
 80035d6:	486f      	ldr	r0, [pc, #444]	@ (8003794 <TIM1_BRK_TIM15_IRQHandler+0x2d0>)
		 if(step_counter != 16000){
 80035d8:	f5b3 537a 	subs.w	r3, r3, #16000	@ 0x3e80
 80035dc:	bf18      	it	ne
 80035de:	2301      	movne	r3, #1
		 RS485_TRANSMITTER.frame[5] = 0;
 80035e0:	2200      	movs	r2, #0
 80035e2:	740a      	strb	r2, [r1, #16]
		 if(step_counter != 16000){
 80035e4:	744b      	strb	r3, [r1, #17]
		 HAL_UART_Transmit(&huart4, RS485_TRANSMITTER.frame, 9, HAL_MAX_DELAY);
 80035e6:	2209      	movs	r2, #9
 80035e8:	f04f 33ff 	mov.w	r3, #4294967295
 80035ec:	310b      	adds	r1, #11
 80035ee:	f7fe fc0f 	bl	8001e10 <HAL_UART_Transmit>
		 HAL_UART_Transmit(&huart4, &newline_char, 1, HAL_MAX_DELAY);
 80035f2:	4969      	ldr	r1, [pc, #420]	@ (8003798 <TIM1_BRK_TIM15_IRQHandler+0x2d4>)
 80035f4:	4867      	ldr	r0, [pc, #412]	@ (8003794 <TIM1_BRK_TIM15_IRQHandler+0x2d0>)
 80035f6:	f04f 33ff 	mov.w	r3, #4294967295
 80035fa:	2201      	movs	r2, #1
 80035fc:	f7fe fc08 	bl	8001e10 <HAL_UART_Transmit>
  if(station_struct.status == 4){
 8003600:	8923      	ldrh	r3, [r4, #8]
 8003602:	e76a      	b.n	80034da <TIM1_BRK_TIM15_IRQHandler+0x16>
	  if(dist_x != 1){
 8003604:	4e65      	ldr	r6, [pc, #404]	@ (800379c <TIM1_BRK_TIM15_IRQHandler+0x2d8>)
 8003606:	7833      	ldrb	r3, [r6, #0]
 8003608:	2b01      	cmp	r3, #1
 800360a:	d157      	bne.n	80036bc <TIM1_BRK_TIM15_IRQHandler+0x1f8>
	  if(step_counter == 200 && dist_x == 1){
 800360c:	682b      	ldr	r3, [r5, #0]
 800360e:	2bc8      	cmp	r3, #200	@ 0xc8
 8003610:	f000 81c2 	beq.w	8003998 <TIM1_BRK_TIM15_IRQHandler+0x4d4>
	  if(station_struct.x_home == 1|| step_counter == 16000){
 8003614:	7aa2      	ldrb	r2, [r4, #10]
 8003616:	2a01      	cmp	r2, #1
 8003618:	d002      	beq.n	8003620 <TIM1_BRK_TIM15_IRQHandler+0x15c>
 800361a:	f5b3 5f7a 	cmp.w	r3, #16000	@ 0x3e80
 800361e:	d121      	bne.n	8003664 <TIM1_BRK_TIM15_IRQHandler+0x1a0>
		  HAL_TIM_PWM_Stop_IT(&htim15, TIM_CHANNEL_1);    // останавливаем ШИМ по каналу 1
 8003620:	2100      	movs	r1, #0
 8003622:	4856      	ldr	r0, [pc, #344]	@ (800377c <TIM1_BRK_TIM15_IRQHandler+0x2b8>)
 8003624:	f7fe f8d0 	bl	80017c8 <HAL_TIM_PWM_Stop_IT>
		  HAL_TIM_PWM_Stop_IT(&htim15, TIM_CHANNEL_2);
 8003628:	2104      	movs	r1, #4
 800362a:	4854      	ldr	r0, [pc, #336]	@ (800377c <TIM1_BRK_TIM15_IRQHandler+0x2b8>)
 800362c:	f7fe f8cc 	bl	80017c8 <HAL_TIM_PWM_Stop_IT>
		  HAL_TIM_Base_Stop_IT(&htim15);
 8003630:	4852      	ldr	r0, [pc, #328]	@ (800377c <TIM1_BRK_TIM15_IRQHandler+0x2b8>)
 8003632:	f7fd ff8d 	bl	8001550 <HAL_TIM_Base_Stop_IT>
		  if(step_counter != 16000){
 8003636:	682b      	ldr	r3, [r5, #0]
		  RS485_TRANSMITTER.frame[5] = 0;
 8003638:	4955      	ldr	r1, [pc, #340]	@ (8003790 <TIM1_BRK_TIM15_IRQHandler+0x2cc>)
		  HAL_UART_Transmit(&huart4, RS485_TRANSMITTER.frame, 9, HAL_MAX_DELAY);
 800363a:	4856      	ldr	r0, [pc, #344]	@ (8003794 <TIM1_BRK_TIM15_IRQHandler+0x2d0>)
		  if(step_counter != 16000){
 800363c:	f5b3 537a 	subs.w	r3, r3, #16000	@ 0x3e80
 8003640:	bf18      	it	ne
 8003642:	2301      	movne	r3, #1
		  RS485_TRANSMITTER.frame[5] = 0;
 8003644:	2200      	movs	r2, #0
 8003646:	740a      	strb	r2, [r1, #16]
		  if(step_counter != 16000){
 8003648:	744b      	strb	r3, [r1, #17]
		  HAL_UART_Transmit(&huart4, RS485_TRANSMITTER.frame, 9, HAL_MAX_DELAY);
 800364a:	2209      	movs	r2, #9
 800364c:	f04f 33ff 	mov.w	r3, #4294967295
 8003650:	310b      	adds	r1, #11
 8003652:	f7fe fbdd 	bl	8001e10 <HAL_UART_Transmit>
		  HAL_UART_Transmit(&huart4, &newline_char, 1, HAL_MAX_DELAY);
 8003656:	4950      	ldr	r1, [pc, #320]	@ (8003798 <TIM1_BRK_TIM15_IRQHandler+0x2d4>)
 8003658:	484e      	ldr	r0, [pc, #312]	@ (8003794 <TIM1_BRK_TIM15_IRQHandler+0x2d0>)
 800365a:	f04f 33ff 	mov.w	r3, #4294967295
 800365e:	2201      	movs	r2, #1
 8003660:	f7fe fbd6 	bl	8001e10 <HAL_UART_Transmit>
  if(station_struct.status == 3){
 8003664:	8923      	ldrh	r3, [r4, #8]
 8003666:	e736      	b.n	80034d6 <TIM1_BRK_TIM15_IRQHandler+0x12>
	  if(step_counter == station_struct.coordinate || HAL_GPIO_ReadPin(GPIOA, GPIO_PIN_10) == GPIO_PIN_SET){
 8003668:	f47f af62 	bne.w	8003530 <TIM1_BRK_TIM15_IRQHandler+0x6c>
		  station_struct.status = 0;
 800366c:	2600      	movs	r6, #0
		  HAL_TIM_PWM_Stop_IT(&htim15, TIM_CHANNEL_1);    // останавливаем ШИМ по каналу 1
 800366e:	4631      	mov	r1, r6
 8003670:	4842      	ldr	r0, [pc, #264]	@ (800377c <TIM1_BRK_TIM15_IRQHandler+0x2b8>)
		  station_struct.status = 0;
 8003672:	8126      	strh	r6, [r4, #8]
		  HAL_TIM_PWM_Stop_IT(&htim15, TIM_CHANNEL_1);    // останавливаем ШИМ по каналу 1
 8003674:	f7fe f8a8 	bl	80017c8 <HAL_TIM_PWM_Stop_IT>
		  HAL_TIM_PWM_Stop_IT(&htim15, TIM_CHANNEL_2);
 8003678:	2104      	movs	r1, #4
 800367a:	4840      	ldr	r0, [pc, #256]	@ (800377c <TIM1_BRK_TIM15_IRQHandler+0x2b8>)
 800367c:	f7fe f8a4 	bl	80017c8 <HAL_TIM_PWM_Stop_IT>
		  HAL_TIM_Base_Stop_IT(&htim15);
 8003680:	483e      	ldr	r0, [pc, #248]	@ (800377c <TIM1_BRK_TIM15_IRQHandler+0x2b8>)
 8003682:	f7fd ff65 	bl	8001550 <HAL_TIM_Base_Stop_IT>
		  RS485_TRANSMITTER.frame[5] = 0;
 8003686:	4b42      	ldr	r3, [pc, #264]	@ (8003790 <TIM1_BRK_TIM15_IRQHandler+0x2cc>)
		  if(step_counter != station_struct.coordinate){
 8003688:	6829      	ldr	r1, [r5, #0]
 800368a:	88a2      	ldrh	r2, [r4, #4]
		  RS485_TRANSMITTER.frame[5] = 0;
 800368c:	741e      	strb	r6, [r3, #16]
		  if(step_counter != station_struct.coordinate){
 800368e:	1a52      	subs	r2, r2, r1
		  RS485_TRANSMITTER.frame[0] = 32;
 8003690:	4619      	mov	r1, r3
		  if(step_counter != station_struct.coordinate){
 8003692:	bf18      	it	ne
 8003694:	2201      	movne	r2, #1
		  RS485_TRANSMITTER.frame[0] = 32;
 8003696:	2020      	movs	r0, #32
 8003698:	f801 0f0b 	strb.w	r0, [r1, #11]!
		  if(step_counter != station_struct.coordinate){
 800369c:	745a      	strb	r2, [r3, #17]
		  HAL_UART_Transmit(&huart4, RS485_TRANSMITTER.frame, 9, HAL_MAX_DELAY);
 800369e:	483d      	ldr	r0, [pc, #244]	@ (8003794 <TIM1_BRK_TIM15_IRQHandler+0x2d0>)
 80036a0:	f04f 33ff 	mov.w	r3, #4294967295
 80036a4:	2209      	movs	r2, #9
 80036a6:	f7fe fbb3 	bl	8001e10 <HAL_UART_Transmit>
		  HAL_UART_Transmit(&huart4, &newline_char, 1, HAL_MAX_DELAY);
 80036aa:	493b      	ldr	r1, [pc, #236]	@ (8003798 <TIM1_BRK_TIM15_IRQHandler+0x2d4>)
 80036ac:	4839      	ldr	r0, [pc, #228]	@ (8003794 <TIM1_BRK_TIM15_IRQHandler+0x2d0>)
 80036ae:	f04f 33ff 	mov.w	r3, #4294967295
 80036b2:	2201      	movs	r2, #1
 80036b4:	f7fe fbac 	bl	8001e10 <HAL_UART_Transmit>
  if(station_struct.status == 2){
 80036b8:	8923      	ldrh	r3, [r4, #8]
 80036ba:	e709      	b.n	80034d0 <TIM1_BRK_TIM15_IRQHandler+0xc>
		  direction(1, 1);
 80036bc:	2101      	movs	r1, #1
 80036be:	4608      	mov	r0, r1
 80036c0:	f7ff fb86 	bl	8002dd0 <direction>
		  if(HAL_GPIO_ReadPin(GPIOA, GPIO_PIN_10) == GPIO_PIN_SET){
 80036c4:	f44f 6180 	mov.w	r1, #1024	@ 0x400
 80036c8:	f04f 4090 	mov.w	r0, #1207959552	@ 0x48000000
 80036cc:	f7fd f82e 	bl	800072c <HAL_GPIO_ReadPin>
 80036d0:	2801      	cmp	r0, #1
 80036d2:	f000 8170 	beq.w	80039b6 <TIM1_BRK_TIM15_IRQHandler+0x4f2>
	  if(step_counter == 200 && dist_x == 1){
 80036d6:	682b      	ldr	r3, [r5, #0]
 80036d8:	2bc8      	cmp	r3, #200	@ 0xc8
 80036da:	d19b      	bne.n	8003614 <TIM1_BRK_TIM15_IRQHandler+0x150>
 80036dc:	7833      	ldrb	r3, [r6, #0]
 80036de:	2b01      	cmp	r3, #1
 80036e0:	f000 815a 	beq.w	8003998 <TIM1_BRK_TIM15_IRQHandler+0x4d4>
	  if(station_struct.x_home == 1|| step_counter == 16000){
 80036e4:	7aa3      	ldrb	r3, [r4, #10]
 80036e6:	2b01      	cmp	r3, #1
 80036e8:	d1bc      	bne.n	8003664 <TIM1_BRK_TIM15_IRQHandler+0x1a0>
 80036ea:	e799      	b.n	8003620 <TIM1_BRK_TIM15_IRQHandler+0x15c>
  		  direction(0, 1);
 80036ec:	2101      	movs	r1, #1
 80036ee:	2000      	movs	r0, #0
 80036f0:	f7ff fb6e 	bl	8002dd0 <direction>
  		  if(HAL_GPIO_ReadPin(GPIOA, GPIO_PIN_10) == GPIO_PIN_SET){
 80036f4:	f44f 6180 	mov.w	r1, #1024	@ 0x400
 80036f8:	f04f 4090 	mov.w	r0, #1207959552	@ 0x48000000
 80036fc:	f7fd f816 	bl	800072c <HAL_GPIO_ReadPin>
 8003700:	2801      	cmp	r0, #1
 8003702:	f000 814c 	beq.w	800399e <TIM1_BRK_TIM15_IRQHandler+0x4da>
  	  if(step_counter == 200 && dist_y == 1){
 8003706:	682b      	ldr	r3, [r5, #0]
 8003708:	2bc8      	cmp	r3, #200	@ 0xc8
 800370a:	f47f af51 	bne.w	80035b0 <TIM1_BRK_TIM15_IRQHandler+0xec>
 800370e:	7833      	ldrb	r3, [r6, #0]
 8003710:	2b01      	cmp	r3, #1
 8003712:	f000 813e 	beq.w	8003992 <TIM1_BRK_TIM15_IRQHandler+0x4ce>
  	  if(station_struct.y_home == 1|| step_counter == 16000){
 8003716:	7ae3      	ldrb	r3, [r4, #11]
 8003718:	2b01      	cmp	r3, #1
 800371a:	f47f af71 	bne.w	8003600 <TIM1_BRK_TIM15_IRQHandler+0x13c>
 800371e:	e74d      	b.n	80035bc <TIM1_BRK_TIM15_IRQHandler+0xf8>
		  HAL_TIM_PWM_Stop_IT(&htim15, TIM_CHANNEL_1);    // останавливаем ШИМ по каналу 1
 8003720:	2100      	movs	r1, #0
 8003722:	4816      	ldr	r0, [pc, #88]	@ (800377c <TIM1_BRK_TIM15_IRQHandler+0x2b8>)
 8003724:	f7fe f850 	bl	80017c8 <HAL_TIM_PWM_Stop_IT>
		  HAL_TIM_PWM_Stop_IT(&htim15, TIM_CHANNEL_2);
 8003728:	2104      	movs	r1, #4
 800372a:	4814      	ldr	r0, [pc, #80]	@ (800377c <TIM1_BRK_TIM15_IRQHandler+0x2b8>)
 800372c:	f7fe f84c 	bl	80017c8 <HAL_TIM_PWM_Stop_IT>
		  HAL_TIM_Base_Stop_IT(&htim15);
 8003730:	4812      	ldr	r0, [pc, #72]	@ (800377c <TIM1_BRK_TIM15_IRQHandler+0x2b8>)
 8003732:	f7fd ff0d 	bl	8001550 <HAL_TIM_Base_Stop_IT>
		  RS485_TRANSMITTER.frame[5] = 0;
 8003736:	4b16      	ldr	r3, [pc, #88]	@ (8003790 <TIM1_BRK_TIM15_IRQHandler+0x2cc>)
		  if(step_counter != station_struct.coordinate){
 8003738:	88a2      	ldrh	r2, [r4, #4]
		  RS485_TRANSMITTER.frame[5] = 0;
 800373a:	2100      	movs	r1, #0
 800373c:	7419      	strb	r1, [r3, #16]
		  if(step_counter != station_struct.coordinate){
 800373e:	6829      	ldr	r1, [r5, #0]
 8003740:	1a52      	subs	r2, r2, r1
		  RS485_TRANSMITTER.frame[0] = 32;
 8003742:	4619      	mov	r1, r3
		  if(step_counter != station_struct.coordinate){
 8003744:	bf18      	it	ne
 8003746:	2201      	movne	r2, #1
		  RS485_TRANSMITTER.frame[0] = 32;
 8003748:	2020      	movs	r0, #32
 800374a:	f801 0f0b 	strb.w	r0, [r1, #11]!
		  if(step_counter != station_struct.coordinate){
 800374e:	745a      	strb	r2, [r3, #17]
		  HAL_UART_Transmit(&huart4, RS485_TRANSMITTER.frame, 9, HAL_MAX_DELAY);
 8003750:	4810      	ldr	r0, [pc, #64]	@ (8003794 <TIM1_BRK_TIM15_IRQHandler+0x2d0>)
 8003752:	f04f 33ff 	mov.w	r3, #4294967295
 8003756:	2209      	movs	r2, #9
 8003758:	f7fe fb5a 	bl	8001e10 <HAL_UART_Transmit>
		  HAL_UART_Transmit(&huart4, &newline_char, 1, HAL_MAX_DELAY);
 800375c:	f04f 33ff 	mov.w	r3, #4294967295
 8003760:	490d      	ldr	r1, [pc, #52]	@ (8003798 <TIM1_BRK_TIM15_IRQHandler+0x2d4>)
 8003762:	480c      	ldr	r0, [pc, #48]	@ (8003794 <TIM1_BRK_TIM15_IRQHandler+0x2d0>)
 8003764:	2201      	movs	r2, #1
 8003766:	f7fe fb53 	bl	8001e10 <HAL_UART_Transmit>
  if(station_struct.status == 5){
 800376a:	8923      	ldrh	r3, [r4, #8]
 800376c:	e6b7      	b.n	80034de <TIM1_BRK_TIM15_IRQHandler+0x1a>
 800376e:	bf00      	nop
 8003770:	20000040 	.word	0x20000040
 8003774:	20000034 	.word	0x20000034
 8003778:	20000418 	.word	0x20000418
 800377c:	200003cc 	.word	0x200003cc
 8003780:	2000003c 	.word	0x2000003c
 8003784:	2000003e 	.word	0x2000003e
 8003788:	40014000 	.word	0x40014000
 800378c:	20000032 	.word	0x20000032
 8003790:	2000005c 	.word	0x2000005c
 8003794:	20000344 	.word	0x20000344
 8003798:	20000008 	.word	0x20000008
 800379c:	20000033 	.word	0x20000033
				TIM15->ARR += Delta_count;
 80037a0:	4b8a      	ldr	r3, [pc, #552]	@ (80039cc <TIM1_BRK_TIM15_IRQHandler+0x508>)
 80037a2:	4a8b      	ldr	r2, [pc, #556]	@ (80039d0 <TIM1_BRK_TIM15_IRQHandler+0x50c>)
 80037a4:	6ad9      	ldr	r1, [r3, #44]	@ 0x2c
 80037a6:	8812      	ldrh	r2, [r2, #0]
 80037a8:	440a      	add	r2, r1
 80037aa:	62da      	str	r2, [r3, #44]	@ 0x2c
				TIM15->CCR1 = TIM15->ARR/2;
 80037ac:	6ada      	ldr	r2, [r3, #44]	@ 0x2c
 80037ae:	0852      	lsrs	r2, r2, #1
 80037b0:	635a      	str	r2, [r3, #52]	@ 0x34
				TIM15->CCR2 = TIM15->CCR1;
 80037b2:	6b5a      	ldr	r2, [r3, #52]	@ 0x34
 80037b4:	639a      	str	r2, [r3, #56]	@ 0x38
				if(TIM15->ARR > 5000){
 80037b6:	6ada      	ldr	r2, [r3, #44]	@ 0x2c
 80037b8:	f241 3188 	movw	r1, #5000	@ 0x1388
 80037bc:	428a      	cmp	r2, r1
 80037be:	f67f aeb7 	bls.w	8003530 <TIM1_BRK_TIM15_IRQHandler+0x6c>
					TIM15->CCR1 = 2500;
 80037c2:	f640 12c4 	movw	r2, #2500	@ 0x9c4
					TIM15->ARR = 5000;
 80037c6:	62d9      	str	r1, [r3, #44]	@ 0x2c
					TIM15->CCR1 = 2500;
 80037c8:	635a      	str	r2, [r3, #52]	@ 0x34
					TIM15->CCR2 = 2500;
 80037ca:	639a      	str	r2, [r3, #56]	@ 0x38
 80037cc:	e6b0      	b.n	8003530 <TIM1_BRK_TIM15_IRQHandler+0x6c>
				TIM15->ARR -= Delta_count;
 80037ce:	4a7f      	ldr	r2, [pc, #508]	@ (80039cc <TIM1_BRK_TIM15_IRQHandler+0x508>)
 80037d0:	4f7f      	ldr	r7, [pc, #508]	@ (80039d0 <TIM1_BRK_TIM15_IRQHandler+0x50c>)
 80037d2:	f8b7 c000 	ldrh.w	ip, [r7]
 80037d6:	6ad7      	ldr	r7, [r2, #44]	@ 0x2c
 80037d8:	eba7 070c 	sub.w	r7, r7, ip
 80037dc:	62d7      	str	r7, [r2, #44]	@ 0x2c
				TIM15->CCR1 = TIM15->ARR/2;
 80037de:	6ad7      	ldr	r7, [r2, #44]	@ 0x2c
 80037e0:	087f      	lsrs	r7, r7, #1
 80037e2:	6357      	str	r7, [r2, #52]	@ 0x34
				TIM15->CCR2 = TIM15->CCR1;
 80037e4:	6b57      	ldr	r7, [r2, #52]	@ 0x34
 80037e6:	6397      	str	r7, [r2, #56]	@ 0x38
				if(TIM15->ARR < SP){
 80037e8:	6ad7      	ldr	r7, [r2, #44]	@ 0x2c
 80037ea:	4287      	cmp	r7, r0
 80037ec:	f4bf ae95 	bcs.w	800351a <TIM1_BRK_TIM15_IRQHandler+0x56>
					TIM15->ARR = SP;
 80037f0:	62d0      	str	r0, [r2, #44]	@ 0x2c
					TIM15->CCR1 = SP/2;
 80037f2:	0840      	lsrs	r0, r0, #1
 80037f4:	6350      	str	r0, [r2, #52]	@ 0x34
					TIM15->CCR2 = TIM15->CCR1;
 80037f6:	6b50      	ldr	r0, [r2, #52]	@ 0x34
 80037f8:	6390      	str	r0, [r2, #56]	@ 0x38
 80037fa:	e68e      	b.n	800351a <TIM1_BRK_TIM15_IRQHandler+0x56>
		direction(1, 0);
 80037fc:	2001      	movs	r0, #1
 80037fe:	f7ff fae7 	bl	8002dd0 <direction>
		if(step_counter < acs_dist){
 8003802:	4b74      	ldr	r3, [pc, #464]	@ (80039d4 <TIM1_BRK_TIM15_IRQHandler+0x510>)
 8003804:	682a      	ldr	r2, [r5, #0]
 8003806:	881b      	ldrh	r3, [r3, #0]
 8003808:	4293      	cmp	r3, r2
 800380a:	d90a      	bls.n	8003822 <TIM1_BRK_TIM15_IRQHandler+0x35e>
			TIM15 -> ARR -= Delta_count;
 800380c:	496f      	ldr	r1, [pc, #444]	@ (80039cc <TIM1_BRK_TIM15_IRQHandler+0x508>)
 800380e:	4870      	ldr	r0, [pc, #448]	@ (80039d0 <TIM1_BRK_TIM15_IRQHandler+0x50c>)
 8003810:	8806      	ldrh	r6, [r0, #0]
 8003812:	6ac8      	ldr	r0, [r1, #44]	@ 0x2c
 8003814:	1b80      	subs	r0, r0, r6
 8003816:	62c8      	str	r0, [r1, #44]	@ 0x2c
			TIM15->CCR1 = TIM15->ARR/2;
 8003818:	6ac8      	ldr	r0, [r1, #44]	@ 0x2c
 800381a:	0840      	lsrs	r0, r0, #1
 800381c:	6348      	str	r0, [r1, #52]	@ 0x34
			TIM15->CCR2 = TIM15->CCR1;
 800381e:	6b48      	ldr	r0, [r1, #52]	@ 0x34
 8003820:	6388      	str	r0, [r1, #56]	@ 0x38
		if(step_counter >= station_struct.width-acs_dist){
 8003822:	8a21      	ldrh	r1, [r4, #16]
 8003824:	1acb      	subs	r3, r1, r3
 8003826:	429a      	cmp	r2, r3
 8003828:	d30a      	bcc.n	8003840 <TIM1_BRK_TIM15_IRQHandler+0x37c>
			TIM15 -> ARR += Delta_count;
 800382a:	4b68      	ldr	r3, [pc, #416]	@ (80039cc <TIM1_BRK_TIM15_IRQHandler+0x508>)
 800382c:	4868      	ldr	r0, [pc, #416]	@ (80039d0 <TIM1_BRK_TIM15_IRQHandler+0x50c>)
 800382e:	6ade      	ldr	r6, [r3, #44]	@ 0x2c
 8003830:	8800      	ldrh	r0, [r0, #0]
 8003832:	4430      	add	r0, r6
 8003834:	62d8      	str	r0, [r3, #44]	@ 0x2c
			TIM15->CCR1 = TIM15->ARR/2;
 8003836:	6ad8      	ldr	r0, [r3, #44]	@ 0x2c
 8003838:	0840      	lsrs	r0, r0, #1
 800383a:	6358      	str	r0, [r3, #52]	@ 0x34
			TIM15->CCR2 = TIM15->CCR1;
 800383c:	6b58      	ldr	r0, [r3, #52]	@ 0x34
 800383e:	6398      	str	r0, [r3, #56]	@ 0x38
		if (TIM15 -> ARR > 5000){
 8003840:	4b62      	ldr	r3, [pc, #392]	@ (80039cc <TIM1_BRK_TIM15_IRQHandler+0x508>)
 8003842:	6ade      	ldr	r6, [r3, #44]	@ 0x2c
 8003844:	f241 3088 	movw	r0, #5000	@ 0x1388
 8003848:	4286      	cmp	r6, r0
 800384a:	d904      	bls.n	8003856 <TIM1_BRK_TIM15_IRQHandler+0x392>
			TIM15 -> ARR = 5000;
 800384c:	62d8      	str	r0, [r3, #44]	@ 0x2c
			TIM15 -> CCR1 = 5000;
 800384e:	6358      	str	r0, [r3, #52]	@ 0x34
			TIM15 -> CCR2 = 2500;
 8003850:	f640 10c4 	movw	r0, #2500	@ 0x9c4
 8003854:	6398      	str	r0, [r3, #56]	@ 0x38
		if (TIM15 -> ARR < SP){
 8003856:	4b5d      	ldr	r3, [pc, #372]	@ (80039cc <TIM1_BRK_TIM15_IRQHandler+0x508>)
 8003858:	485f      	ldr	r0, [pc, #380]	@ (80039d8 <TIM1_BRK_TIM15_IRQHandler+0x514>)
 800385a:	6ade      	ldr	r6, [r3, #44]	@ 0x2c
 800385c:	8800      	ldrh	r0, [r0, #0]
 800385e:	4286      	cmp	r6, r0
 8003860:	d205      	bcs.n	800386e <TIM1_BRK_TIM15_IRQHandler+0x3aa>
			TIM15 -> ARR = SP;
 8003862:	62d8      	str	r0, [r3, #44]	@ 0x2c
			TIM15 -> CCR1 = TIM15->ARR/2;
 8003864:	6ad8      	ldr	r0, [r3, #44]	@ 0x2c
 8003866:	0840      	lsrs	r0, r0, #1
 8003868:	6358      	str	r0, [r3, #52]	@ 0x34
			TIM15 -> CCR2 = TIM15 -> CCR1;
 800386a:	6b58      	ldr	r0, [r3, #52]	@ 0x34
 800386c:	6398      	str	r0, [r3, #56]	@ 0x38
		if(step_counter == station_struct.width || HAL_GPIO_ReadPin(GPIOA, GPIO_PIN_10) == GPIO_PIN_SET){
 800386e:	428a      	cmp	r2, r1
 8003870:	d009      	beq.n	8003886 <TIM1_BRK_TIM15_IRQHandler+0x3c2>
 8003872:	f44f 6180 	mov.w	r1, #1024	@ 0x400
 8003876:	f04f 4090 	mov.w	r0, #1207959552	@ 0x48000000
 800387a:	f7fc ff57 	bl	800072c <HAL_GPIO_ReadPin>
 800387e:	2801      	cmp	r0, #1
 8003880:	d001      	beq.n	8003886 <TIM1_BRK_TIM15_IRQHandler+0x3c2>
	if(station_struct.internal_progress == 1){
 8003882:	7d21      	ldrb	r1, [r4, #20]
 8003884:	e662      	b.n	800354c <TIM1_BRK_TIM15_IRQHandler+0x88>
			station_struct.internal_progress = 1;
 8003886:	2201      	movs	r2, #1
			step_counter = 0;
 8003888:	2300      	movs	r3, #0
			station_struct.internal_progress = 1;
 800388a:	7522      	strb	r2, [r4, #20]
			step_counter = 0;
 800388c:	602b      	str	r3, [r5, #0]
		direction(0, 0);
 800388e:	2100      	movs	r1, #0
 8003890:	4608      	mov	r0, r1
 8003892:	f7ff fa9d 	bl	8002dd0 <direction>
		TIM15 -> ARR = 5000;
 8003896:	4b4d      	ldr	r3, [pc, #308]	@ (80039cc <TIM1_BRK_TIM15_IRQHandler+0x508>)
		TIM15 -> CCR1 = 2500;
 8003898:	f640 12c4 	movw	r2, #2500	@ 0x9c4
		TIM15 -> ARR = 5000;
 800389c:	f241 3188 	movw	r1, #5000	@ 0x1388
 80038a0:	62d9      	str	r1, [r3, #44]	@ 0x2c
		TIM15 -> CCR1 = 2500;
 80038a2:	635a      	str	r2, [r3, #52]	@ 0x34
		TIM15 -> CCR2 = 2500;
 80038a4:	639a      	str	r2, [r3, #56]	@ 0x38
		if(step_counter == station_struct.height){
 80038a6:	682b      	ldr	r3, [r5, #0]
 80038a8:	89e2      	ldrh	r2, [r4, #14]
 80038aa:	429a      	cmp	r2, r3
 80038ac:	d001      	beq.n	80038b2 <TIM1_BRK_TIM15_IRQHandler+0x3ee>
	if(station_struct.internal_progress == 2){
 80038ae:	7d21      	ldrb	r1, [r4, #20]
 80038b0:	e64f      	b.n	8003552 <TIM1_BRK_TIM15_IRQHandler+0x8e>
			station_struct.internal_progress = 2;
 80038b2:	2202      	movs	r2, #2
			step_counter = 0;
 80038b4:	2300      	movs	r3, #0
			station_struct.internal_progress = 2;
 80038b6:	7522      	strb	r2, [r4, #20]
			step_counter = 0;
 80038b8:	602b      	str	r3, [r5, #0]
		direction(1, 1);
 80038ba:	2101      	movs	r1, #1
 80038bc:	4608      	mov	r0, r1
 80038be:	f7ff fa87 	bl	8002dd0 <direction>
		if(step_counter < acs_dist){
 80038c2:	4b44      	ldr	r3, [pc, #272]	@ (80039d4 <TIM1_BRK_TIM15_IRQHandler+0x510>)
 80038c4:	682a      	ldr	r2, [r5, #0]
 80038c6:	881b      	ldrh	r3, [r3, #0]
 80038c8:	4293      	cmp	r3, r2
 80038ca:	d90a      	bls.n	80038e2 <TIM1_BRK_TIM15_IRQHandler+0x41e>
			TIM15 -> ARR -= Delta_count;
 80038cc:	493f      	ldr	r1, [pc, #252]	@ (80039cc <TIM1_BRK_TIM15_IRQHandler+0x508>)
 80038ce:	4840      	ldr	r0, [pc, #256]	@ (80039d0 <TIM1_BRK_TIM15_IRQHandler+0x50c>)
 80038d0:	8806      	ldrh	r6, [r0, #0]
 80038d2:	6ac8      	ldr	r0, [r1, #44]	@ 0x2c
 80038d4:	1b80      	subs	r0, r0, r6
 80038d6:	62c8      	str	r0, [r1, #44]	@ 0x2c
			TIM15->CCR1 = TIM15->ARR/2;
 80038d8:	6ac8      	ldr	r0, [r1, #44]	@ 0x2c
 80038da:	0840      	lsrs	r0, r0, #1
 80038dc:	6348      	str	r0, [r1, #52]	@ 0x34
			TIM15->CCR2 = TIM15->CCR1;
 80038de:	6b48      	ldr	r0, [r1, #52]	@ 0x34
 80038e0:	6388      	str	r0, [r1, #56]	@ 0x38
		if(step_counter >= station_struct.width-acs_dist){
 80038e2:	8a21      	ldrh	r1, [r4, #16]
 80038e4:	1acb      	subs	r3, r1, r3
 80038e6:	429a      	cmp	r2, r3
 80038e8:	d30a      	bcc.n	8003900 <TIM1_BRK_TIM15_IRQHandler+0x43c>
			TIM15 -> ARR += Delta_count;
 80038ea:	4b38      	ldr	r3, [pc, #224]	@ (80039cc <TIM1_BRK_TIM15_IRQHandler+0x508>)
 80038ec:	4838      	ldr	r0, [pc, #224]	@ (80039d0 <TIM1_BRK_TIM15_IRQHandler+0x50c>)
 80038ee:	6ade      	ldr	r6, [r3, #44]	@ 0x2c
 80038f0:	8800      	ldrh	r0, [r0, #0]
 80038f2:	4430      	add	r0, r6
 80038f4:	62d8      	str	r0, [r3, #44]	@ 0x2c
			TIM15->CCR1 = TIM15->ARR/2;
 80038f6:	6ad8      	ldr	r0, [r3, #44]	@ 0x2c
 80038f8:	0840      	lsrs	r0, r0, #1
 80038fa:	6358      	str	r0, [r3, #52]	@ 0x34
			TIM15->CCR2 = TIM15->CCR1;
 80038fc:	6b58      	ldr	r0, [r3, #52]	@ 0x34
 80038fe:	6398      	str	r0, [r3, #56]	@ 0x38
		if (TIM15 -> ARR > 5000){
 8003900:	4b32      	ldr	r3, [pc, #200]	@ (80039cc <TIM1_BRK_TIM15_IRQHandler+0x508>)
 8003902:	6ade      	ldr	r6, [r3, #44]	@ 0x2c
 8003904:	f241 3088 	movw	r0, #5000	@ 0x1388
 8003908:	4286      	cmp	r6, r0
 800390a:	d904      	bls.n	8003916 <TIM1_BRK_TIM15_IRQHandler+0x452>
			TIM15 -> ARR = 5000;
 800390c:	62d8      	str	r0, [r3, #44]	@ 0x2c
			TIM15 -> CCR1 = 5000;
 800390e:	6358      	str	r0, [r3, #52]	@ 0x34
			TIM15 -> CCR2 = 2500;
 8003910:	f640 10c4 	movw	r0, #2500	@ 0x9c4
 8003914:	6398      	str	r0, [r3, #56]	@ 0x38
		if (TIM15 -> ARR < SP){
 8003916:	4b2d      	ldr	r3, [pc, #180]	@ (80039cc <TIM1_BRK_TIM15_IRQHandler+0x508>)
 8003918:	482f      	ldr	r0, [pc, #188]	@ (80039d8 <TIM1_BRK_TIM15_IRQHandler+0x514>)
 800391a:	6ade      	ldr	r6, [r3, #44]	@ 0x2c
 800391c:	8800      	ldrh	r0, [r0, #0]
 800391e:	4286      	cmp	r6, r0
 8003920:	d205      	bcs.n	800392e <TIM1_BRK_TIM15_IRQHandler+0x46a>
			TIM15 -> ARR = SP;
 8003922:	62d8      	str	r0, [r3, #44]	@ 0x2c
			TIM15 -> CCR1 = TIM15->ARR/2;
 8003924:	6ad8      	ldr	r0, [r3, #44]	@ 0x2c
 8003926:	0840      	lsrs	r0, r0, #1
 8003928:	6358      	str	r0, [r3, #52]	@ 0x34
			TIM15 -> CCR2 = TIM15 -> CCR1;
 800392a:	6b58      	ldr	r0, [r3, #52]	@ 0x34
 800392c:	6398      	str	r0, [r3, #56]	@ 0x38
		if(step_counter == station_struct.width || HAL_GPIO_ReadPin(GPIOA, GPIO_PIN_10) == GPIO_PIN_SET){
 800392e:	428a      	cmp	r2, r1
 8003930:	d125      	bne.n	800397e <TIM1_BRK_TIM15_IRQHandler+0x4ba>
			station_struct.internal_progress = 3;
 8003932:	2203      	movs	r2, #3
			step_counter = 0;
 8003934:	2300      	movs	r3, #0
			station_struct.internal_progress = 3;
 8003936:	7522      	strb	r2, [r4, #20]
			step_counter = 0;
 8003938:	602b      	str	r3, [r5, #0]
		direction(0, 0);
 800393a:	2100      	movs	r1, #0
 800393c:	4608      	mov	r0, r1
 800393e:	f7ff fa47 	bl	8002dd0 <direction>
		TIM15 -> ARR = 5000;
 8003942:	4b22      	ldr	r3, [pc, #136]	@ (80039cc <TIM1_BRK_TIM15_IRQHandler+0x508>)
		TIM15 -> CCR1 = 2500;
 8003944:	f640 12c4 	movw	r2, #2500	@ 0x9c4
		TIM15 -> ARR = 5000;
 8003948:	f241 3188 	movw	r1, #5000	@ 0x1388
 800394c:	62d9      	str	r1, [r3, #44]	@ 0x2c
		TIM15 -> CCR1 = 2500;
 800394e:	635a      	str	r2, [r3, #52]	@ 0x34
		TIM15 -> CCR2 = 2500;
 8003950:	639a      	str	r2, [r3, #56]	@ 0x38
		if(step_counter == station_struct.height || HAL_GPIO_ReadPin(GPIOA, GPIO_PIN_10) == GPIO_PIN_SET){
 8003952:	682b      	ldr	r3, [r5, #0]
 8003954:	89e2      	ldrh	r2, [r4, #14]
 8003956:	429a      	cmp	r2, r3
 8003958:	d107      	bne.n	800396a <TIM1_BRK_TIM15_IRQHandler+0x4a6>
			station_struct.external_progress +=1;
 800395a:	7ce3      	ldrb	r3, [r4, #19]
 800395c:	3301      	adds	r3, #1
			station_struct.internal_progress = 0;
 800395e:	2200      	movs	r2, #0
			station_struct.external_progress +=1;
 8003960:	b2db      	uxtb	r3, r3
			station_struct.internal_progress = 0;
 8003962:	7522      	strb	r2, [r4, #20]
			station_struct.external_progress +=1;
 8003964:	74e3      	strb	r3, [r4, #19]
			step_counter = 0;
 8003966:	602a      	str	r2, [r5, #0]
 8003968:	e5fa      	b.n	8003560 <TIM1_BRK_TIM15_IRQHandler+0x9c>
		if(step_counter == station_struct.height || HAL_GPIO_ReadPin(GPIOA, GPIO_PIN_10) == GPIO_PIN_SET){
 800396a:	f44f 6180 	mov.w	r1, #1024	@ 0x400
 800396e:	f04f 4090 	mov.w	r0, #1207959552	@ 0x48000000
 8003972:	f7fc fedb 	bl	800072c <HAL_GPIO_ReadPin>
 8003976:	2801      	cmp	r0, #1
 8003978:	f47f adf1 	bne.w	800355e <TIM1_BRK_TIM15_IRQHandler+0x9a>
 800397c:	e7ed      	b.n	800395a <TIM1_BRK_TIM15_IRQHandler+0x496>
		if(step_counter == station_struct.width || HAL_GPIO_ReadPin(GPIOA, GPIO_PIN_10) == GPIO_PIN_SET){
 800397e:	f44f 6180 	mov.w	r1, #1024	@ 0x400
 8003982:	f04f 4090 	mov.w	r0, #1207959552	@ 0x48000000
 8003986:	f7fc fed1 	bl	800072c <HAL_GPIO_ReadPin>
 800398a:	2801      	cmp	r0, #1
 800398c:	d0d1      	beq.n	8003932 <TIM1_BRK_TIM15_IRQHandler+0x46e>
	if(station_struct.internal_progress == 3){
 800398e:	7d21      	ldrb	r1, [r4, #20]
 8003990:	e5e2      	b.n	8003558 <TIM1_BRK_TIM15_IRQHandler+0x94>
  		  station_struct.y_home = 1;
 8003992:	2301      	movs	r3, #1
 8003994:	72e3      	strb	r3, [r4, #11]
  	  if(station_struct.y_home == 1|| step_counter == 16000){
 8003996:	e611      	b.n	80035bc <TIM1_BRK_TIM15_IRQHandler+0xf8>
		  station_struct.x_home = 1;
 8003998:	2301      	movs	r3, #1
 800399a:	72a3      	strb	r3, [r4, #10]
	  if(station_struct.x_home == 1|| step_counter == 16000){
 800399c:	e640      	b.n	8003620 <TIM1_BRK_TIM15_IRQHandler+0x15c>
  			  direction(0, 0);
 800399e:	2100      	movs	r1, #0
  			  dist_y = 1;
 80039a0:	7030      	strb	r0, [r6, #0]
  			  direction(0, 0);
 80039a2:	4608      	mov	r0, r1
 80039a4:	f7ff fa14 	bl	8002dd0 <direction>
  	  if(station_struct.y_home == 1|| step_counter == 16000){
 80039a8:	7ae3      	ldrb	r3, [r4, #11]
  			  step_counter = 0;
 80039aa:	2200      	movs	r2, #0
  	  if(station_struct.y_home == 1|| step_counter == 16000){
 80039ac:	2b01      	cmp	r3, #1
  			  step_counter = 0;
 80039ae:	602a      	str	r2, [r5, #0]
  	  if(station_struct.y_home == 1|| step_counter == 16000){
 80039b0:	f47f ae26 	bne.w	8003600 <TIM1_BRK_TIM15_IRQHandler+0x13c>
 80039b4:	e602      	b.n	80035bc <TIM1_BRK_TIM15_IRQHandler+0xf8>
			  direction(1, 0);
 80039b6:	2100      	movs	r1, #0
			  dist_x = 1;
 80039b8:	7030      	strb	r0, [r6, #0]
			  direction(1, 0);
 80039ba:	f7ff fa09 	bl	8002dd0 <direction>
	  if(station_struct.x_home == 1|| step_counter == 16000){
 80039be:	7aa3      	ldrb	r3, [r4, #10]
			  step_counter = 0;
 80039c0:	2200      	movs	r2, #0
	  if(station_struct.x_home == 1|| step_counter == 16000){
 80039c2:	2b01      	cmp	r3, #1
			  step_counter = 0;
 80039c4:	602a      	str	r2, [r5, #0]
	  if(station_struct.x_home == 1|| step_counter == 16000){
 80039c6:	f47f ae4d 	bne.w	8003664 <TIM1_BRK_TIM15_IRQHandler+0x1a0>
 80039ca:	e629      	b.n	8003620 <TIM1_BRK_TIM15_IRQHandler+0x15c>
 80039cc:	40014000 	.word	0x40014000
 80039d0:	20000038 	.word	0x20000038
 80039d4:	2000003c 	.word	0x2000003c
 80039d8:	2000003e 	.word	0x2000003e

080039dc <UART4_IRQHandler>:

/**
  * @brief This function handles UART4 global interrupt / UART4 wake-up interrupt through EXTI line 34.
  */
void UART4_IRQHandler(void)
{
 80039dc:	b538      	push	{r3, r4, r5, lr}
  /* USER CODE BEGIN UART4_IRQn 0 */
  uint8_t received_char = (uint8_t)(UART4-> RDR  & 0xFF);
 80039de:	4b15      	ldr	r3, [pc, #84]	@ (8003a34 <UART4_IRQHandler+0x58>)
  DataRecive(&RS485_TRANSMITTER, received_char);//выполняем заполнение команды
 80039e0:	4c15      	ldr	r4, [pc, #84]	@ (8003a38 <UART4_IRQHandler+0x5c>)
  uint8_t received_char = (uint8_t)(UART4-> RDR  & 0xFF);
 80039e2:	8c99      	ldrh	r1, [r3, #36]	@ 0x24
  DataRecive(&RS485_TRANSMITTER, received_char);//выполняем заполнение команды
 80039e4:	4620      	mov	r0, r4
 80039e6:	b2c9      	uxtb	r1, r1
 80039e8:	f7ff fa70 	bl	8002ecc <DataRecive>
  if(RS485_TRANSMITTER.data_update == 1){//проверяем флаг апдейта
 80039ec:	7aa3      	ldrb	r3, [r4, #10]
 80039ee:	2b01      	cmp	r3, #1
 80039f0:	d004      	beq.n	80039fc <UART4_IRQHandler+0x20>
  /* USER CODE END UART4_IRQn 0 */
  HAL_UART_IRQHandler(&huart4);
  /* USER CODE BEGIN UART4_IRQn 1 */

  /* USER CODE END UART4_IRQn 1 */
}
 80039f2:	e8bd 4038 	ldmia.w	sp!, {r3, r4, r5, lr}
  HAL_UART_IRQHandler(&huart4);
 80039f6:	4811      	ldr	r0, [pc, #68]	@ (8003a3c <UART4_IRQHandler+0x60>)
 80039f8:	f7fe baa6 	b.w	8001f48 <HAL_UART_IRQHandler>
	crc = (RS485_TRANSMITTER.CRC16[0] << 8) + RS485_TRANSMITTER.CRC16[1];
 80039fc:	8923      	ldrh	r3, [r4, #8]
 80039fe:	4d10      	ldr	r5, [pc, #64]	@ (8003a40 <UART4_IRQHandler+0x64>)
 8003a00:	ba5b      	rev16	r3, r3
	crc_check = CRC16_calc(RS485_TRANSMITTER.frame, 7);
 8003a02:	2107      	movs	r1, #7
 8003a04:	f104 000b 	add.w	r0, r4, #11
	crc = (RS485_TRANSMITTER.CRC16[0] << 8) + RS485_TRANSMITTER.CRC16[1];
 8003a08:	802b      	strh	r3, [r5, #0]
	crc_check = CRC16_calc(RS485_TRANSMITTER.frame, 7);
 8003a0a:	f7ff fa19 	bl	8002e40 <CRC16_calc>
	if(crc == crc_check){
 8003a0e:	882b      	ldrh	r3, [r5, #0]
	crc_check = CRC16_calc(RS485_TRANSMITTER.frame, 7);
 8003a10:	4a0c      	ldr	r2, [pc, #48]	@ (8003a44 <UART4_IRQHandler+0x68>)
	if(crc == crc_check){
 8003a12:	4283      	cmp	r3, r0
	crc_check = CRC16_calc(RS485_TRANSMITTER.frame, 7);
 8003a14:	8010      	strh	r0, [r2, #0]
	if(crc == crc_check){
 8003a16:	d006      	beq.n	8003a26 <UART4_IRQHandler+0x4a>
		RS485_TRANSMITTER.data_update = 0;
 8003a18:	2300      	movs	r3, #0
 8003a1a:	72a3      	strb	r3, [r4, #10]
}
 8003a1c:	e8bd 4038 	ldmia.w	sp!, {r3, r4, r5, lr}
  HAL_UART_IRQHandler(&huart4);
 8003a20:	4806      	ldr	r0, [pc, #24]	@ (8003a3c <UART4_IRQHandler+0x60>)
 8003a22:	f7fe ba91 	b.w	8001f48 <HAL_UART_IRQHandler>
		proceed(&station_struct, &RS485_TRANSMITTER);
 8003a26:	4808      	ldr	r0, [pc, #32]	@ (8003a48 <UART4_IRQHandler+0x6c>)
 8003a28:	4621      	mov	r1, r4
 8003a2a:	f7ff fa87 	bl	8002f3c <proceed>
		RS485_TRANSMITTER.data_update = 0;
 8003a2e:	2300      	movs	r3, #0
 8003a30:	72a3      	strb	r3, [r4, #10]
 8003a32:	e7de      	b.n	80039f2 <UART4_IRQHandler+0x16>
 8003a34:	40004c00 	.word	0x40004c00
 8003a38:	2000005c 	.word	0x2000005c
 8003a3c:	20000344 	.word	0x20000344
 8003a40:	20000056 	.word	0x20000056
 8003a44:	20000030 	.word	0x20000030
 8003a48:	20000040 	.word	0x20000040

08003a4c <SystemInit>:
  */
void SystemInit(void)
{
/* FPU settings --------------------------------------------------------------*/
#if (__FPU_PRESENT == 1) && (__FPU_USED == 1)
  SCB->CPACR |= ((3UL << 10*2)|(3UL << 11*2));  /* set CP10 and CP11 Full Access */
 8003a4c:	4a03      	ldr	r2, [pc, #12]	@ (8003a5c <SystemInit+0x10>)
 8003a4e:	f8d2 3088 	ldr.w	r3, [r2, #136]	@ 0x88
 8003a52:	f443 0370 	orr.w	r3, r3, #15728640	@ 0xf00000
 8003a56:	f8c2 3088 	str.w	r3, [r2, #136]	@ 0x88

  /* Configure the Vector Table location -------------------------------------*/
#if defined(USER_VECT_TAB_ADDRESS)
  SCB->VTOR = VECT_TAB_BASE_ADDRESS | VECT_TAB_OFFSET; /* Vector Table Relocation in Internal SRAM */
#endif /* USER_VECT_TAB_ADDRESS */
}
 8003a5a:	4770      	bx	lr
 8003a5c:	e000ed00 	.word	0xe000ed00

08003a60 <Reset_Handler>:

    .section	.text.Reset_Handler
	.weak	Reset_Handler
	.type	Reset_Handler, %function
Reset_Handler:
  ldr   sp, =_estack    /* Atollic update: set stack pointer */
 8003a60:	f8df d034 	ldr.w	sp, [pc, #52]	@ 8003a98 <LoopForever+0x2>
  
/* Call the clock system initialization function.*/
    bl  SystemInit
 8003a64:	f7ff fff2 	bl	8003a4c <SystemInit>

/* Copy the data segment initializers from flash to SRAM */
  ldr r0, =_sdata
 8003a68:	480c      	ldr	r0, [pc, #48]	@ (8003a9c <LoopForever+0x6>)
  ldr r1, =_edata
 8003a6a:	490d      	ldr	r1, [pc, #52]	@ (8003aa0 <LoopForever+0xa>)
  ldr r2, =_sidata
 8003a6c:	4a0d      	ldr	r2, [pc, #52]	@ (8003aa4 <LoopForever+0xe>)
  movs r3, #0
 8003a6e:	2300      	movs	r3, #0
  b LoopCopyDataInit
 8003a70:	e002      	b.n	8003a78 <LoopCopyDataInit>

08003a72 <CopyDataInit>:

CopyDataInit:
  ldr r4, [r2, r3]
 8003a72:	58d4      	ldr	r4, [r2, r3]
  str r4, [r0, r3]
 8003a74:	50c4      	str	r4, [r0, r3]
  adds r3, r3, #4
 8003a76:	3304      	adds	r3, #4

08003a78 <LoopCopyDataInit>:

LoopCopyDataInit:
  adds r4, r0, r3
 8003a78:	18c4      	adds	r4, r0, r3
  cmp r4, r1
 8003a7a:	428c      	cmp	r4, r1
  bcc CopyDataInit
 8003a7c:	d3f9      	bcc.n	8003a72 <CopyDataInit>
  
/* Zero fill the bss segment. */
  ldr r2, =_sbss
 8003a7e:	4a0a      	ldr	r2, [pc, #40]	@ (8003aa8 <LoopForever+0x12>)
  ldr r4, =_ebss
 8003a80:	4c0a      	ldr	r4, [pc, #40]	@ (8003aac <LoopForever+0x16>)
  movs r3, #0
 8003a82:	2300      	movs	r3, #0
  b LoopFillZerobss
 8003a84:	e001      	b.n	8003a8a <LoopFillZerobss>

08003a86 <FillZerobss>:

FillZerobss:
  str  r3, [r2]
 8003a86:	6013      	str	r3, [r2, #0]
  adds r2, r2, #4
 8003a88:	3204      	adds	r2, #4

08003a8a <LoopFillZerobss>:

LoopFillZerobss:
  cmp r2, r4
 8003a8a:	42a2      	cmp	r2, r4
  bcc FillZerobss
 8003a8c:	d3fb      	bcc.n	8003a86 <FillZerobss>

/* Call static constructors */
    bl __libc_init_array
 8003a8e:	f000 f819 	bl	8003ac4 <__libc_init_array>
/* Call the application's entry point.*/
	bl	main
 8003a92:	f7ff f811 	bl	8002ab8 <main>

08003a96 <LoopForever>:

LoopForever:
    b LoopForever
 8003a96:	e7fe      	b.n	8003a96 <LoopForever>
  ldr   sp, =_estack    /* Atollic update: set stack pointer */
 8003a98:	2000a000 	.word	0x2000a000
  ldr r0, =_sdata
 8003a9c:	20000000 	.word	0x20000000
  ldr r1, =_edata
 8003aa0:	20000010 	.word	0x20000010
  ldr r2, =_sidata
 8003aa4:	08003b64 	.word	0x08003b64
  ldr r2, =_sbss
 8003aa8:	20000010 	.word	0x20000010
  ldr r4, =_ebss
 8003aac:	200004c8 	.word	0x200004c8

08003ab0 <ADC1_2_IRQHandler>:
 * @retval : None
*/
    .section	.text.Default_Handler,"ax",%progbits
Default_Handler:
Infinite_Loop:
	b	Infinite_Loop
 8003ab0:	e7fe      	b.n	8003ab0 <ADC1_2_IRQHandler>

08003ab2 <memset>:
 8003ab2:	4402      	add	r2, r0
 8003ab4:	4603      	mov	r3, r0
 8003ab6:	4293      	cmp	r3, r2
 8003ab8:	d100      	bne.n	8003abc <memset+0xa>
 8003aba:	4770      	bx	lr
 8003abc:	f803 1b01 	strb.w	r1, [r3], #1
 8003ac0:	e7f9      	b.n	8003ab6 <memset+0x4>
	...

08003ac4 <__libc_init_array>:
 8003ac4:	b570      	push	{r4, r5, r6, lr}
 8003ac6:	4d0d      	ldr	r5, [pc, #52]	@ (8003afc <__libc_init_array+0x38>)
 8003ac8:	4c0d      	ldr	r4, [pc, #52]	@ (8003b00 <__libc_init_array+0x3c>)
 8003aca:	1b64      	subs	r4, r4, r5
 8003acc:	10a4      	asrs	r4, r4, #2
 8003ace:	2600      	movs	r6, #0
 8003ad0:	42a6      	cmp	r6, r4
 8003ad2:	d109      	bne.n	8003ae8 <__libc_init_array+0x24>
 8003ad4:	4d0b      	ldr	r5, [pc, #44]	@ (8003b04 <__libc_init_array+0x40>)
 8003ad6:	4c0c      	ldr	r4, [pc, #48]	@ (8003b08 <__libc_init_array+0x44>)
 8003ad8:	f000 f818 	bl	8003b0c <_init>
 8003adc:	1b64      	subs	r4, r4, r5
 8003ade:	10a4      	asrs	r4, r4, #2
 8003ae0:	2600      	movs	r6, #0
 8003ae2:	42a6      	cmp	r6, r4
 8003ae4:	d105      	bne.n	8003af2 <__libc_init_array+0x2e>
 8003ae6:	bd70      	pop	{r4, r5, r6, pc}
 8003ae8:	f855 3b04 	ldr.w	r3, [r5], #4
 8003aec:	4798      	blx	r3
 8003aee:	3601      	adds	r6, #1
 8003af0:	e7ee      	b.n	8003ad0 <__libc_init_array+0xc>
 8003af2:	f855 3b04 	ldr.w	r3, [r5], #4
 8003af6:	4798      	blx	r3
 8003af8:	3601      	adds	r6, #1
 8003afa:	e7f2      	b.n	8003ae2 <__libc_init_array+0x1e>
 8003afc:	08003b5c 	.word	0x08003b5c
 8003b00:	08003b5c 	.word	0x08003b5c
 8003b04:	08003b5c 	.word	0x08003b5c
 8003b08:	08003b60 	.word	0x08003b60

08003b0c <_init>:
 8003b0c:	b5f8      	push	{r3, r4, r5, r6, r7, lr}
 8003b0e:	bf00      	nop
 8003b10:	bcf8      	pop	{r3, r4, r5, r6, r7}
 8003b12:	bc08      	pop	{r3}
 8003b14:	469e      	mov	lr, r3
 8003b16:	4770      	bx	lr

08003b18 <_fini>:
 8003b18:	b5f8      	push	{r3, r4, r5, r6, r7, lr}
 8003b1a:	bf00      	nop
 8003b1c:	bcf8      	pop	{r3, r4, r5, r6, r7}
 8003b1e:	bc08      	pop	{r3}
 8003b20:	469e      	mov	lr, r3
 8003b22:	4770      	bx	lr
